
both:     file format elf64-x86-64


Disassembly of section .init:

00000000004014f0 <_init>:
  4014f0:	48 83 ec 08          	sub    $0x8,%rsp
  4014f4:	48 8b 05 fd 4a 20 00 	mov    0x204afd(%rip),%rax        # 605ff8 <_DYNAMIC+0x1f0>
  4014fb:	48 85 c0             	test   %rax,%rax
  4014fe:	74 05                	je     401505 <_init+0x15>
  401500:	e8 cb 02 00 00       	callq  4017d0 <__gmon_start__@plt>
  401505:	48 83 c4 08          	add    $0x8,%rsp
  401509:	c3                   	retq   

Disassembly of section .plt:

0000000000401510 <EVP_CIPHER_CTX_free@plt-0x10>:
  401510:	ff 35 f2 4a 20 00    	pushq  0x204af2(%rip)        # 606008 <_GLOBAL_OFFSET_TABLE_+0x8>
  401516:	ff 25 f4 4a 20 00    	jmpq   *0x204af4(%rip)        # 606010 <_GLOBAL_OFFSET_TABLE_+0x10>
  40151c:	0f 1f 40 00          	nopl   0x0(%rax)

0000000000401520 <EVP_CIPHER_CTX_free@plt>:
  401520:	ff 25 f2 4a 20 00    	jmpq   *0x204af2(%rip)        # 606018 <_GLOBAL_OFFSET_TABLE_+0x18>
  401526:	68 00 00 00 00       	pushq  $0x0
  40152b:	e9 e0 ff ff ff       	jmpq   401510 <_init+0x20>

0000000000401530 <ERR_clear_error@plt>:
  401530:	ff 25 ea 4a 20 00    	jmpq   *0x204aea(%rip)        # 606020 <_GLOBAL_OFFSET_TABLE_+0x20>
  401536:	68 01 00 00 00       	pushq  $0x1
  40153b:	e9 d0 ff ff ff       	jmpq   401510 <_init+0x20>

0000000000401540 <BIO_ctrl@plt>:
  401540:	ff 25 e2 4a 20 00    	jmpq   *0x204ae2(%rip)        # 606028 <_GLOBAL_OFFSET_TABLE_+0x28>
  401546:	68 02 00 00 00       	pushq  $0x2
  40154b:	e9 c0 ff ff ff       	jmpq   401510 <_init+0x20>

0000000000401550 <sk_value@plt>:
  401550:	ff 25 da 4a 20 00    	jmpq   *0x204ada(%rip)        # 606030 <_GLOBAL_OFFSET_TABLE_+0x30>
  401556:	68 03 00 00 00       	pushq  $0x3
  40155b:	e9 b0 ff ff ff       	jmpq   401510 <_init+0x20>

0000000000401560 <X509_STORE_CTX_init@plt>:
  401560:	ff 25 d2 4a 20 00    	jmpq   *0x204ad2(%rip)        # 606038 <_GLOBAL_OFFSET_TABLE_+0x38>
  401566:	68 04 00 00 00       	pushq  $0x4
  40156b:	e9 a0 ff ff ff       	jmpq   401510 <_init+0x20>

0000000000401570 <X509_verify_cert@plt>:
  401570:	ff 25 ca 4a 20 00    	jmpq   *0x204aca(%rip)        # 606040 <_GLOBAL_OFFSET_TABLE_+0x40>
  401576:	68 05 00 00 00       	pushq  $0x5
  40157b:	e9 90 ff ff ff       	jmpq   401510 <_init+0x20>

0000000000401580 <X509_STORE_CTX_cleanup@plt>:
  401580:	ff 25 c2 4a 20 00    	jmpq   *0x204ac2(%rip)        # 606048 <_GLOBAL_OFFSET_TABLE_+0x48>
  401586:	68 06 00 00 00       	pushq  $0x6
  40158b:	e9 80 ff ff ff       	jmpq   401510 <_init+0x20>

0000000000401590 <memset@plt>:
  401590:	ff 25 ba 4a 20 00    	jmpq   *0x204aba(%rip)        # 606050 <_GLOBAL_OFFSET_TABLE_+0x50>
  401596:	68 07 00 00 00       	pushq  $0x7
  40159b:	e9 70 ff ff ff       	jmpq   401510 <_init+0x20>

00000000004015a0 <pqueue_peek@plt>:
  4015a0:	ff 25 b2 4a 20 00    	jmpq   *0x204ab2(%rip)        # 606058 <_GLOBAL_OFFSET_TABLE_+0x58>
  4015a6:	68 08 00 00 00       	pushq  $0x8
  4015ab:	e9 60 ff ff ff       	jmpq   401510 <_init+0x20>

00000000004015b0 <SSL_get_wbio@plt>:
  4015b0:	ff 25 aa 4a 20 00    	jmpq   *0x204aaa(%rip)        # 606060 <_GLOBAL_OFFSET_TABLE_+0x60>
  4015b6:	68 09 00 00 00       	pushq  $0x9
  4015bb:	e9 50 ff ff ff       	jmpq   401510 <_init+0x20>

00000000004015c0 <CRYPTO_malloc@plt>:
  4015c0:	ff 25 a2 4a 20 00    	jmpq   *0x204aa2(%rip)        # 606068 <_GLOBAL_OFFSET_TABLE_+0x68>
  4015c6:	68 0a 00 00 00       	pushq  $0xa
  4015cb:	e9 40 ff ff ff       	jmpq   401510 <_init+0x20>

00000000004015d0 <ssl3_finish_mac@plt>:
  4015d0:	ff 25 9a 4a 20 00    	jmpq   *0x204a9a(%rip)        # 606070 <_GLOBAL_OFFSET_TABLE_+0x70>
  4015d6:	68 0b 00 00 00       	pushq  $0xb
  4015db:	e9 30 ff ff ff       	jmpq   401510 <_init+0x20>

00000000004015e0 <EVP_CIPHER_flags@plt>:
  4015e0:	ff 25 92 4a 20 00    	jmpq   *0x204a92(%rip)        # 606078 <_GLOBAL_OFFSET_TABLE_+0x78>
  4015e6:	68 0c 00 00 00       	pushq  $0xc
  4015eb:	e9 20 ff ff ff       	jmpq   401510 <_init+0x20>

00000000004015f0 <EVP_MD_CTX_md@plt>:
  4015f0:	ff 25 8a 4a 20 00    	jmpq   *0x204a8a(%rip)        # 606080 <_GLOBAL_OFFSET_TABLE_+0x80>
  4015f6:	68 0d 00 00 00       	pushq  $0xd
  4015fb:	e9 10 ff ff ff       	jmpq   401510 <_init+0x20>

0000000000401600 <dtls1_write_bytes@plt>:
  401600:	ff 25 82 4a 20 00    	jmpq   *0x204a82(%rip)        # 606088 <_GLOBAL_OFFSET_TABLE_+0x88>
  401606:	68 0e 00 00 00       	pushq  $0xe
  40160b:	e9 00 ff ff ff       	jmpq   401510 <_init+0x20>

0000000000401610 <dtls1_start_timer@plt>:
  401610:	ff 25 7a 4a 20 00    	jmpq   *0x204a7a(%rip)        # 606090 <_GLOBAL_OFFSET_TABLE_+0x90>
  401616:	68 0f 00 00 00       	pushq  $0xf
  40161b:	e9 f0 fe ff ff       	jmpq   401510 <_init+0x20>

0000000000401620 <memcpy@plt>:
  401620:	ff 25 72 4a 20 00    	jmpq   *0x204a72(%rip)        # 606098 <_GLOBAL_OFFSET_TABLE_+0x98>
  401626:	68 10 00 00 00       	pushq  $0x10
  40162b:	e9 e0 fe ff ff       	jmpq   401510 <_init+0x20>

0000000000401630 <EVP_MD_size@plt>:
  401630:	ff 25 6a 4a 20 00    	jmpq   *0x204a6a(%rip)        # 6060a0 <_GLOBAL_OFFSET_TABLE_+0xa0>
  401636:	68 11 00 00 00       	pushq  $0x11
  40163b:	e9 d0 fe ff ff       	jmpq   401510 <_init+0x20>

0000000000401640 <BUF_MEM_grow_clean@plt>:
  401640:	ff 25 62 4a 20 00    	jmpq   *0x204a62(%rip)        # 6060a8 <_GLOBAL_OFFSET_TABLE_+0xa8>
  401646:	68 12 00 00 00       	pushq  $0x12
  40164b:	e9 c0 fe ff ff       	jmpq   401510 <_init+0x20>

0000000000401650 <OpenSSLDie@plt>:
  401650:	ff 25 5a 4a 20 00    	jmpq   *0x204a5a(%rip)        # 6060b0 <_GLOBAL_OFFSET_TABLE_+0xb0>
  401656:	68 13 00 00 00       	pushq  $0x13
  40165b:	e9 b0 fe ff ff       	jmpq   401510 <_init+0x20>

0000000000401660 <pitem_free@plt>:
  401660:	ff 25 52 4a 20 00    	jmpq   *0x204a52(%rip)        # 6060b8 <_GLOBAL_OFFSET_TABLE_+0xb8>
  401666:	68 14 00 00 00       	pushq  $0x14
  40166b:	e9 a0 fe ff ff       	jmpq   401510 <_init+0x20>

0000000000401670 <EVP_MD_CTX_destroy@plt>:
  401670:	ff 25 4a 4a 20 00    	jmpq   *0x204a4a(%rip)        # 6060c0 <_GLOBAL_OFFSET_TABLE_+0xc0>
  401676:	68 15 00 00 00       	pushq  $0x15
  40167b:	e9 90 fe ff ff       	jmpq   401510 <_init+0x20>

0000000000401680 <pitem_new@plt>:
  401680:	ff 25 42 4a 20 00    	jmpq   *0x204a42(%rip)        # 6060c8 <_GLOBAL_OFFSET_TABLE_+0xc8>
  401686:	68 16 00 00 00       	pushq  $0x16
  40168b:	e9 80 fe ff ff       	jmpq   401510 <_init+0x20>

0000000000401690 <ssl3_send_alert@plt>:
  401690:	ff 25 3a 4a 20 00    	jmpq   *0x204a3a(%rip)        # 6060d0 <_GLOBAL_OFFSET_TABLE_+0xd0>
  401696:	68 17 00 00 00       	pushq  $0x17
  40169b:	e9 70 fe ff ff       	jmpq   401510 <_init+0x20>

00000000004016a0 <ERR_put_error@plt>:
  4016a0:	ff 25 32 4a 20 00    	jmpq   *0x204a32(%rip)        # 6060d8 <_GLOBAL_OFFSET_TABLE_+0xd8>
  4016a6:	68 18 00 00 00       	pushq  $0x18
  4016ab:	e9 60 fe ff ff       	jmpq   401510 <_init+0x20>

00000000004016b0 <dtls1_stop_timer@plt>:
  4016b0:	ff 25 2a 4a 20 00    	jmpq   *0x204a2a(%rip)        # 6060e0 <_GLOBAL_OFFSET_TABLE_+0xe0>
  4016b6:	68 19 00 00 00       	pushq  $0x19
  4016bb:	e9 50 fe ff ff       	jmpq   401510 <_init+0x20>

00000000004016c0 <CRYPTO_free@plt>:
  4016c0:	ff 25 22 4a 20 00    	jmpq   *0x204a22(%rip)        # 6060e8 <_GLOBAL_OFFSET_TABLE_+0xe8>
  4016c6:	68 1a 00 00 00       	pushq  $0x1a
  4016cb:	e9 40 fe ff ff       	jmpq   401510 <_init+0x20>

00000000004016d0 <dtls1_is_timer_expired@plt>:
  4016d0:	ff 25 1a 4a 20 00    	jmpq   *0x204a1a(%rip)        # 6060f0 <_GLOBAL_OFFSET_TABLE_+0xf0>
  4016d6:	68 1b 00 00 00       	pushq  $0x1b
  4016db:	e9 30 fe ff ff       	jmpq   401510 <_init+0x20>

00000000004016e0 <pqueue_insert@plt>:
  4016e0:	ff 25 12 4a 20 00    	jmpq   *0x204a12(%rip)        # 6060f8 <_GLOBAL_OFFSET_TABLE_+0xf8>
  4016e6:	68 1c 00 00 00       	pushq  $0x1c
  4016eb:	e9 20 fe ff ff       	jmpq   401510 <_init+0x20>

00000000004016f0 <pqueue_iterator@plt>:
  4016f0:	ff 25 0a 4a 20 00    	jmpq   *0x204a0a(%rip)        # 606100 <_GLOBAL_OFFSET_TABLE_+0x100>
  4016f6:	68 1d 00 00 00       	pushq  $0x1d
  4016fb:	e9 10 fe ff ff       	jmpq   401510 <_init+0x20>

0000000000401700 <RAND_pseudo_bytes@plt>:
  401700:	ff 25 02 4a 20 00    	jmpq   *0x204a02(%rip)        # 606108 <_GLOBAL_OFFSET_TABLE_+0x108>
  401706:	68 1e 00 00 00       	pushq  $0x1e
  40170b:	e9 00 fe ff ff       	jmpq   401510 <_init+0x20>

0000000000401710 <fprintf@plt>:
  401710:	ff 25 fa 49 20 00    	jmpq   *0x2049fa(%rip)        # 606110 <_GLOBAL_OFFSET_TABLE_+0x110>
  401716:	68 1f 00 00 00       	pushq  $0x1f
  40171b:	e9 f0 fd ff ff       	jmpq   401510 <_init+0x20>

0000000000401720 <sk_num@plt>:
  401720:	ff 25 f2 49 20 00    	jmpq   *0x2049f2(%rip)        # 606118 <_GLOBAL_OFFSET_TABLE_+0x118>
  401726:	68 20 00 00 00       	pushq  $0x20
  40172b:	e9 e0 fd ff ff       	jmpq   401510 <_init+0x20>

0000000000401730 <pqueue_find@plt>:
  401730:	ff 25 ea 49 20 00    	jmpq   *0x2049ea(%rip)        # 606120 <_GLOBAL_OFFSET_TABLE_+0x120>
  401736:	68 21 00 00 00       	pushq  $0x21
  40173b:	e9 d0 fd ff ff       	jmpq   401510 <_init+0x20>

0000000000401740 <pqueue_pop@plt>:
  401740:	ff 25 e2 49 20 00    	jmpq   *0x2049e2(%rip)        # 606128 <_GLOBAL_OFFSET_TABLE_+0x128>
  401746:	68 22 00 00 00       	pushq  $0x22
  40174b:	e9 c0 fd ff ff       	jmpq   401510 <_init+0x20>

0000000000401750 <SSL_state@plt>:
  401750:	ff 25 da 49 20 00    	jmpq   *0x2049da(%rip)        # 606130 <_GLOBAL_OFFSET_TABLE_+0x130>
  401756:	68 23 00 00 00       	pushq  $0x23
  40175b:	e9 b0 fd ff ff       	jmpq   401510 <_init+0x20>

0000000000401760 <SSL_get_rbio@plt>:
  401760:	ff 25 d2 49 20 00    	jmpq   *0x2049d2(%rip)        # 606138 <_GLOBAL_OFFSET_TABLE_+0x138>
  401766:	68 24 00 00 00       	pushq  $0x24
  40176b:	e9 a0 fd ff ff       	jmpq   401510 <_init+0x20>

0000000000401770 <EVP_CIPHER_block_size@plt>:
  401770:	ff 25 ca 49 20 00    	jmpq   *0x2049ca(%rip)        # 606140 <_GLOBAL_OFFSET_TABLE_+0x140>
  401776:	68 25 00 00 00       	pushq  $0x25
  40177b:	e9 90 fd ff ff       	jmpq   401510 <_init+0x20>

0000000000401780 <i2d_X509@plt>:
  401780:	ff 25 c2 49 20 00    	jmpq   *0x2049c2(%rip)        # 606148 <_GLOBAL_OFFSET_TABLE_+0x148>
  401786:	68 26 00 00 00       	pushq  $0x26
  40178b:	e9 80 fd ff ff       	jmpq   401510 <_init+0x20>

0000000000401790 <dtls1_handle_timeout@plt>:
  401790:	ff 25 ba 49 20 00    	jmpq   *0x2049ba(%rip)        # 606150 <_GLOBAL_OFFSET_TABLE_+0x150>
  401796:	68 27 00 00 00       	pushq  $0x27
  40179b:	e9 70 fd ff ff       	jmpq   401510 <_init+0x20>

00000000004017a0 <SSL_ctrl@plt>:
  4017a0:	ff 25 b2 49 20 00    	jmpq   *0x2049b2(%rip)        # 606158 <_GLOBAL_OFFSET_TABLE_+0x158>
  4017a6:	68 28 00 00 00       	pushq  $0x28
  4017ab:	e9 60 fd ff ff       	jmpq   401510 <_init+0x20>

00000000004017b0 <BIO_set_flags@plt>:
  4017b0:	ff 25 aa 49 20 00    	jmpq   *0x2049aa(%rip)        # 606160 <_GLOBAL_OFFSET_TABLE_+0x160>
  4017b6:	68 29 00 00 00       	pushq  $0x29
  4017bb:	e9 50 fd ff ff       	jmpq   401510 <_init+0x20>

00000000004017c0 <__libc_start_main@plt>:
  4017c0:	ff 25 a2 49 20 00    	jmpq   *0x2049a2(%rip)        # 606168 <_GLOBAL_OFFSET_TABLE_+0x168>
  4017c6:	68 2a 00 00 00       	pushq  $0x2a
  4017cb:	e9 40 fd ff ff       	jmpq   401510 <_init+0x20>

00000000004017d0 <__gmon_start__@plt>:
  4017d0:	ff 25 9a 49 20 00    	jmpq   *0x20499a(%rip)        # 606170 <_GLOBAL_OFFSET_TABLE_+0x170>
  4017d6:	68 2b 00 00 00       	pushq  $0x2b
  4017db:	e9 30 fd ff ff       	jmpq   401510 <_init+0x20>

00000000004017e0 <ssl3_shutdown@plt>:
  4017e0:	ff 25 92 49 20 00    	jmpq   *0x204992(%rip)        # 606178 <_GLOBAL_OFFSET_TABLE_+0x178>
  4017e6:	68 2c 00 00 00       	pushq  $0x2c
  4017eb:	e9 20 fd ff ff       	jmpq   401510 <_init+0x20>

00000000004017f0 <fwrite@plt>:
  4017f0:	ff 25 8a 49 20 00    	jmpq   *0x20498a(%rip)        # 606180 <_GLOBAL_OFFSET_TABLE_+0x180>
  4017f6:	68 2d 00 00 00       	pushq  $0x2d
  4017fb:	e9 10 fd ff ff       	jmpq   401510 <_init+0x20>

0000000000401800 <pqueue_next@plt>:
  401800:	ff 25 82 49 20 00    	jmpq   *0x204982(%rip)        # 606188 <_GLOBAL_OFFSET_TABLE_+0x188>
  401806:	68 2e 00 00 00       	pushq  $0x2e
  40180b:	e9 00 fd ff ff       	jmpq   401510 <_init+0x20>

Disassembly of section .text:

0000000000401810 <_start>:
  401810:	31 ed                	xor    %ebp,%ebp
  401812:	49 89 d1             	mov    %rdx,%r9
  401815:	5e                   	pop    %rsi
  401816:	48 89 e2             	mov    %rsp,%rdx
  401819:	48 83 e4 f0          	and    $0xfffffffffffffff0,%rsp
  40181d:	50                   	push   %rax
  40181e:	54                   	push   %rsp
  40181f:	49 c7 c0 90 4e 40 00 	mov    $0x404e90,%r8
  401826:	48 c7 c1 20 4e 40 00 	mov    $0x404e20,%rcx
  40182d:	48 c7 c7 13 4e 40 00 	mov    $0x404e13,%rdi
  401834:	e8 87 ff ff ff       	callq  4017c0 <__libc_start_main@plt>
  401839:	f4                   	hlt    
  40183a:	66 90                	xchg   %ax,%ax
  40183c:	0f 1f 40 00          	nopl   0x0(%rax)

0000000000401840 <deregister_tm_clones>:
  401840:	b8 b7 61 60 00       	mov    $0x6061b7,%eax
  401845:	55                   	push   %rbp
  401846:	48 2d b0 61 60 00    	sub    $0x6061b0,%rax
  40184c:	48 83 f8 0e          	cmp    $0xe,%rax
  401850:	48 89 e5             	mov    %rsp,%rbp
  401853:	77 02                	ja     401857 <deregister_tm_clones+0x17>
  401855:	5d                   	pop    %rbp
  401856:	c3                   	retq   
  401857:	b8 00 00 00 00       	mov    $0x0,%eax
  40185c:	48 85 c0             	test   %rax,%rax
  40185f:	74 f4                	je     401855 <deregister_tm_clones+0x15>
  401861:	5d                   	pop    %rbp
  401862:	bf b0 61 60 00       	mov    $0x6061b0,%edi
  401867:	ff e0                	jmpq   *%rax
  401869:	0f 1f 80 00 00 00 00 	nopl   0x0(%rax)

0000000000401870 <register_tm_clones>:
  401870:	b8 b0 61 60 00       	mov    $0x6061b0,%eax
  401875:	55                   	push   %rbp
  401876:	48 2d b0 61 60 00    	sub    $0x6061b0,%rax
  40187c:	48 c1 f8 03          	sar    $0x3,%rax
  401880:	48 89 e5             	mov    %rsp,%rbp
  401883:	48 89 c2             	mov    %rax,%rdx
  401886:	48 c1 ea 3f          	shr    $0x3f,%rdx
  40188a:	48 01 d0             	add    %rdx,%rax
  40188d:	48 d1 f8             	sar    %rax
  401890:	75 02                	jne    401894 <register_tm_clones+0x24>
  401892:	5d                   	pop    %rbp
  401893:	c3                   	retq   
  401894:	ba 00 00 00 00       	mov    $0x0,%edx
  401899:	48 85 d2             	test   %rdx,%rdx
  40189c:	74 f4                	je     401892 <register_tm_clones+0x22>
  40189e:	5d                   	pop    %rbp
  40189f:	48 89 c6             	mov    %rax,%rsi
  4018a2:	bf b0 61 60 00       	mov    $0x6061b0,%edi
  4018a7:	ff e2                	jmpq   *%rdx
  4018a9:	0f 1f 80 00 00 00 00 	nopl   0x0(%rax)

00000000004018b0 <__do_global_dtors_aux>:
  4018b0:	80 3d 01 49 20 00 00 	cmpb   $0x0,0x204901(%rip)        # 6061b8 <completed.6337>
  4018b7:	75 11                	jne    4018ca <__do_global_dtors_aux+0x1a>
  4018b9:	55                   	push   %rbp
  4018ba:	48 89 e5             	mov    %rsp,%rbp
  4018bd:	e8 7e ff ff ff       	callq  401840 <deregister_tm_clones>
  4018c2:	5d                   	pop    %rbp
  4018c3:	c6 05 ee 48 20 00 01 	movb   $0x1,0x2048ee(%rip)        # 6061b8 <completed.6337>
  4018ca:	f3 c3                	repz retq 
  4018cc:	0f 1f 40 00          	nopl   0x0(%rax)

00000000004018d0 <frame_dummy>:
  4018d0:	48 83 3d 28 45 20 00 	cmpq   $0x0,0x204528(%rip)        # 605e00 <__JCR_END__>
  4018d7:	00 
  4018d8:	74 1e                	je     4018f8 <frame_dummy+0x28>
  4018da:	b8 00 00 00 00       	mov    $0x0,%eax
  4018df:	48 85 c0             	test   %rax,%rax
  4018e2:	74 14                	je     4018f8 <frame_dummy+0x28>
  4018e4:	55                   	push   %rbp
  4018e5:	bf 00 5e 60 00       	mov    $0x605e00,%edi
  4018ea:	48 89 e5             	mov    %rsp,%rbp
  4018ed:	ff d0                	callq  *%rax
  4018ef:	5d                   	pop    %rbp
  4018f0:	e9 7b ff ff ff       	jmpq   401870 <register_tm_clones>
  4018f5:	0f 1f 00             	nopl   (%rax)
  4018f8:	e9 73 ff ff ff       	jmpq   401870 <register_tm_clones>
  4018fd:	0f 1f 00             	nopl   (%rax)

0000000000401900 <dtls1_hm_fragment_new>:
  401900:	55                   	push   %rbp
  401901:	48 89 e5             	mov    %rsp,%rbp
  401904:	48 83 ec 30          	sub    $0x30,%rsp
  401908:	48 89 7d d8          	mov    %rdi,-0x28(%rbp)
  40190c:	89 75 d4             	mov    %esi,-0x2c(%rbp)
  40190f:	48 c7 45 e8 00 00 00 	movq   $0x0,-0x18(%rbp)
  401916:	00 
  401917:	48 c7 45 f8 00 00 00 	movq   $0x0,-0x8(%rbp)
  40191e:	00 
  40191f:	48 c7 45 f0 00 00 00 	movq   $0x0,-0x10(%rbp)
  401926:	00 
  401927:	ba b3 00 00 00       	mov    $0xb3,%edx
  40192c:	be b0 4e 40 00       	mov    $0x404eb0,%esi
  401931:	bf 68 00 00 00       	mov    $0x68,%edi
  401936:	e8 85 fc ff ff       	callq  4015c0 <CRYPTO_malloc@plt>
  40193b:	48 89 45 e8          	mov    %rax,-0x18(%rbp)
  40193f:	48 83 7d e8 00       	cmpq   $0x0,-0x18(%rbp)
  401944:	75 0a                	jne    401950 <dtls1_hm_fragment_new+0x50>
  401946:	b8 00 00 00 00       	mov    $0x0,%eax
  40194b:	e9 cd 00 00 00       	jmpq   401a1d <dtls1_hm_fragment_new+0x11d>
  401950:	48 83 7d d8 00       	cmpq   $0x0,-0x28(%rbp)
  401955:	74 36                	je     40198d <dtls1_hm_fragment_new+0x8d>
  401957:	48 8b 45 d8          	mov    -0x28(%rbp),%rax
  40195b:	ba b9 00 00 00       	mov    $0xb9,%edx
  401960:	be b0 4e 40 00       	mov    $0x404eb0,%esi
  401965:	89 c7                	mov    %eax,%edi
  401967:	e8 54 fc ff ff       	callq  4015c0 <CRYPTO_malloc@plt>
  40196c:	48 89 45 f8          	mov    %rax,-0x8(%rbp)
  401970:	48 83 7d f8 00       	cmpq   $0x0,-0x8(%rbp)
  401975:	75 16                	jne    40198d <dtls1_hm_fragment_new+0x8d>
  401977:	48 8b 45 e8          	mov    -0x18(%rbp),%rax
  40197b:	48 89 c7             	mov    %rax,%rdi
  40197e:	e8 3d fd ff ff       	callq  4016c0 <CRYPTO_free@plt>
  401983:	b8 00 00 00 00       	mov    $0x0,%eax
  401988:	e9 90 00 00 00       	jmpq   401a1d <dtls1_hm_fragment_new+0x11d>
  40198d:	48 8b 45 e8          	mov    -0x18(%rbp),%rax
  401991:	48 8b 55 f8          	mov    -0x8(%rbp),%rdx
  401995:	48 89 50 58          	mov    %rdx,0x58(%rax)
  401999:	83 7d d4 00          	cmpl   $0x0,-0x2c(%rbp)
  40199d:	74 6e                	je     401a0d <dtls1_hm_fragment_new+0x10d>
  40199f:	48 8b 45 d8          	mov    -0x28(%rbp),%rax
  4019a3:	48 83 c0 07          	add    $0x7,%rax
  4019a7:	48 c1 e8 03          	shr    $0x3,%rax
  4019ab:	ba c7 00 00 00       	mov    $0xc7,%edx
  4019b0:	be b0 4e 40 00       	mov    $0x404eb0,%esi
  4019b5:	89 c7                	mov    %eax,%edi
  4019b7:	e8 04 fc ff ff       	callq  4015c0 <CRYPTO_malloc@plt>
  4019bc:	48 89 45 f0          	mov    %rax,-0x10(%rbp)
  4019c0:	48 83 7d f0 00       	cmpq   $0x0,-0x10(%rbp)
  4019c5:	75 26                	jne    4019ed <dtls1_hm_fragment_new+0xed>
  4019c7:	48 83 7d f8 00       	cmpq   $0x0,-0x8(%rbp)
  4019cc:	74 0c                	je     4019da <dtls1_hm_fragment_new+0xda>
  4019ce:	48 8b 45 f8          	mov    -0x8(%rbp),%rax
  4019d2:	48 89 c7             	mov    %rax,%rdi
  4019d5:	e8 e6 fc ff ff       	callq  4016c0 <CRYPTO_free@plt>
  4019da:	48 8b 45 e8          	mov    -0x18(%rbp),%rax
  4019de:	48 89 c7             	mov    %rax,%rdi
  4019e1:	e8 da fc ff ff       	callq  4016c0 <CRYPTO_free@plt>
  4019e6:	b8 00 00 00 00       	mov    $0x0,%eax
  4019eb:	eb 30                	jmp    401a1d <dtls1_hm_fragment_new+0x11d>
  4019ed:	48 8b 45 d8          	mov    -0x28(%rbp),%rax
  4019f1:	48 83 c0 07          	add    $0x7,%rax
  4019f5:	48 c1 e8 03          	shr    $0x3,%rax
  4019f9:	48 89 c2             	mov    %rax,%rdx
  4019fc:	48 8b 45 f0          	mov    -0x10(%rbp),%rax
  401a00:	be 00 00 00 00       	mov    $0x0,%esi
  401a05:	48 89 c7             	mov    %rax,%rdi
  401a08:	e8 83 fb ff ff       	callq  401590 <memset@plt>
  401a0d:	48 8b 45 e8          	mov    -0x18(%rbp),%rax
  401a11:	48 8b 55 f0          	mov    -0x10(%rbp),%rdx
  401a15:	48 89 50 60          	mov    %rdx,0x60(%rax)
  401a19:	48 8b 45 e8          	mov    -0x18(%rbp),%rax
  401a1d:	c9                   	leaveq 
  401a1e:	c3                   	retq   

0000000000401a1f <dtls1_hm_fragment_free>:
  401a1f:	55                   	push   %rbp
  401a20:	48 89 e5             	mov    %rsp,%rbp
  401a23:	48 83 ec 10          	sub    $0x10,%rsp
  401a27:	48 89 7d f8          	mov    %rdi,-0x8(%rbp)
  401a2b:	48 8b 45 f8          	mov    -0x8(%rbp),%rax
  401a2f:	8b 40 28             	mov    0x28(%rax),%eax
  401a32:	85 c0                	test   %eax,%eax
  401a34:	74 20                	je     401a56 <dtls1_hm_fragment_free+0x37>
  401a36:	48 8b 45 f8          	mov    -0x8(%rbp),%rax
  401a3a:	48 8b 40 30          	mov    0x30(%rax),%rax
  401a3e:	48 89 c7             	mov    %rax,%rdi
  401a41:	e8 da fa ff ff       	callq  401520 <EVP_CIPHER_CTX_free@plt>
  401a46:	48 8b 45 f8          	mov    -0x8(%rbp),%rax
  401a4a:	48 8b 40 38          	mov    0x38(%rax),%rax
  401a4e:	48 89 c7             	mov    %rax,%rdi
  401a51:	e8 1a fc ff ff       	callq  401670 <EVP_MD_CTX_destroy@plt>
  401a56:	48 8b 45 f8          	mov    -0x8(%rbp),%rax
  401a5a:	48 8b 40 58          	mov    0x58(%rax),%rax
  401a5e:	48 85 c0             	test   %rax,%rax
  401a61:	74 10                	je     401a73 <dtls1_hm_fragment_free+0x54>
  401a63:	48 8b 45 f8          	mov    -0x8(%rbp),%rax
  401a67:	48 8b 40 58          	mov    0x58(%rax),%rax
  401a6b:	48 89 c7             	mov    %rax,%rdi
  401a6e:	e8 4d fc ff ff       	callq  4016c0 <CRYPTO_free@plt>
  401a73:	48 8b 45 f8          	mov    -0x8(%rbp),%rax
  401a77:	48 8b 40 60          	mov    0x60(%rax),%rax
  401a7b:	48 85 c0             	test   %rax,%rax
  401a7e:	74 10                	je     401a90 <dtls1_hm_fragment_free+0x71>
  401a80:	48 8b 45 f8          	mov    -0x8(%rbp),%rax
  401a84:	48 8b 40 60          	mov    0x60(%rax),%rax
  401a88:	48 89 c7             	mov    %rax,%rdi
  401a8b:	e8 30 fc ff ff       	callq  4016c0 <CRYPTO_free@plt>
  401a90:	48 8b 45 f8          	mov    -0x8(%rbp),%rax
  401a94:	48 89 c7             	mov    %rax,%rdi
  401a97:	e8 24 fc ff ff       	callq  4016c0 <CRYPTO_free@plt>
  401a9c:	c9                   	leaveq 
  401a9d:	c3                   	retq   

0000000000401a9e <dtls1_do_write>:
  401a9e:	55                   	push   %rbp
  401a9f:	48 89 e5             	mov    %rsp,%rbp
  401aa2:	53                   	push   %rbx
  401aa3:	48 83 ec 58          	sub    $0x58,%rsp
  401aa7:	48 89 7d b8          	mov    %rdi,-0x48(%rbp)
  401aab:	89 75 b4             	mov    %esi,-0x4c(%rbp)
  401aae:	48 8b 45 b8          	mov    -0x48(%rbp),%rax
  401ab2:	48 8b 80 88 00 00 00 	mov    0x88(%rax),%rax
  401ab9:	8b 98 80 02 00 00    	mov    0x280(%rax),%ebx
  401abf:	e8 80 2c 00 00       	callq  404744 <dtls1_min_mtu>
  401ac4:	39 c3                	cmp    %eax,%ebx
  401ac6:	0f 83 e9 00 00 00    	jae    401bb5 <dtls1_do_write+0x117>
  401acc:	48 8b 45 b8          	mov    -0x48(%rbp),%rax
  401ad0:	b9 00 00 00 00       	mov    $0x0,%ecx
  401ad5:	ba 00 00 00 00       	mov    $0x0,%edx
  401ada:	be 20 00 00 00       	mov    $0x20,%esi
  401adf:	48 89 c7             	mov    %rax,%rdi
  401ae2:	e8 b9 fc ff ff       	callq  4017a0 <SSL_ctrl@plt>
  401ae7:	25 00 10 00 00       	and    $0x1000,%eax
  401aec:	48 85 c0             	test   %rax,%rax
  401aef:	0f 85 c0 00 00 00    	jne    401bb5 <dtls1_do_write+0x117>
  401af5:	48 8b 45 b8          	mov    -0x48(%rbp),%rax
  401af9:	48 8b 98 88 00 00 00 	mov    0x88(%rax),%rbx
  401b00:	48 8b 45 b8          	mov    -0x48(%rbp),%rax
  401b04:	48 89 c7             	mov    %rax,%rdi
  401b07:	e8 a4 fa ff ff       	callq  4015b0 <SSL_get_wbio@plt>
  401b0c:	b9 00 00 00 00       	mov    $0x0,%ecx
  401b11:	ba 00 00 00 00       	mov    $0x0,%edx
  401b16:	be 28 00 00 00       	mov    $0x28,%esi
  401b1b:	48 89 c7             	mov    %rax,%rdi
  401b1e:	e8 1d fa ff ff       	callq  401540 <BIO_ctrl@plt>
  401b23:	89 83 80 02 00 00    	mov    %eax,0x280(%rbx)
  401b29:	48 8b 45 b8          	mov    -0x48(%rbp),%rax
  401b2d:	48 8b 80 88 00 00 00 	mov    0x88(%rax),%rax
  401b34:	8b 98 80 02 00 00    	mov    0x280(%rax),%ebx
  401b3a:	e8 05 2c 00 00       	callq  404744 <dtls1_min_mtu>
  401b3f:	39 c3                	cmp    %eax,%ebx
  401b41:	73 72                	jae    401bb5 <dtls1_do_write+0x117>
  401b43:	48 8b 45 b8          	mov    -0x48(%rbp),%rax
  401b47:	48 8b 80 88 00 00 00 	mov    0x88(%rax),%rax
  401b4e:	c7 80 80 02 00 00 00 	movl   $0x0,0x280(%rax)
  401b55:	00 00 00 
  401b58:	48 8b 45 b8          	mov    -0x48(%rbp),%rax
  401b5c:	48 8b 98 88 00 00 00 	mov    0x88(%rax),%rbx
  401b63:	48 8b 45 b8          	mov    -0x48(%rbp),%rax
  401b67:	48 8b 80 88 00 00 00 	mov    0x88(%rax),%rax
  401b6e:	8b 80 80 02 00 00    	mov    0x280(%rax),%eax
  401b74:	89 c7                	mov    %eax,%edi
  401b76:	e8 d5 2b 00 00       	callq  404750 <dtls1_guess_mtu>
  401b7b:	89 83 80 02 00 00    	mov    %eax,0x280(%rbx)
  401b81:	48 8b 45 b8          	mov    -0x48(%rbp),%rax
  401b85:	48 8b 80 88 00 00 00 	mov    0x88(%rax),%rax
  401b8c:	8b 80 80 02 00 00    	mov    0x280(%rax),%eax
  401b92:	89 c3                	mov    %eax,%ebx
  401b94:	48 8b 45 b8          	mov    -0x48(%rbp),%rax
  401b98:	48 89 c7             	mov    %rax,%rdi
  401b9b:	e8 10 fa ff ff       	callq  4015b0 <SSL_get_wbio@plt>
  401ba0:	b9 00 00 00 00       	mov    $0x0,%ecx
  401ba5:	48 89 da             	mov    %rbx,%rdx
  401ba8:	be 2a 00 00 00       	mov    $0x2a,%esi
  401bad:	48 89 c7             	mov    %rax,%rdi
  401bb0:	e8 8b f9 ff ff       	callq  401540 <BIO_ctrl@plt>
  401bb5:	48 8b 45 b8          	mov    -0x48(%rbp),%rax
  401bb9:	48 8b 80 88 00 00 00 	mov    0x88(%rax),%rax
  401bc0:	8b 98 80 02 00 00    	mov    0x280(%rax),%ebx
  401bc6:	e8 79 2b 00 00       	callq  404744 <dtls1_min_mtu>
  401bcb:	39 c3                	cmp    %eax,%ebx
  401bcd:	73 14                	jae    401be3 <dtls1_do_write+0x145>
  401bcf:	ba ba 4e 40 00       	mov    $0x404eba,%edx
  401bd4:	be 12 01 00 00       	mov    $0x112,%esi
  401bd9:	bf b0 4e 40 00       	mov    $0x404eb0,%edi
  401bde:	e8 6d fa ff ff       	callq  401650 <OpenSSLDie@plt>
  401be3:	48 8b 45 b8          	mov    -0x48(%rbp),%rax
  401be7:	8b 40 64             	mov    0x64(%rax),%eax
  401bea:	85 c0                	test   %eax,%eax
  401bec:	75 3a                	jne    401c28 <dtls1_do_write+0x18a>
  401bee:	83 7d b4 16          	cmpl   $0x16,-0x4c(%rbp)
  401bf2:	75 34                	jne    401c28 <dtls1_do_write+0x18a>
  401bf4:	48 8b 45 b8          	mov    -0x48(%rbp),%rax
  401bf8:	8b 50 60             	mov    0x60(%rax),%edx
  401bfb:	48 8b 45 b8          	mov    -0x48(%rbp),%rax
  401bff:	48 8b 80 88 00 00 00 	mov    0x88(%rax),%rax
  401c06:	48 8b 80 90 02 00 00 	mov    0x290(%rax),%rax
  401c0d:	83 c0 0c             	add    $0xc,%eax
  401c10:	39 c2                	cmp    %eax,%edx
  401c12:	74 14                	je     401c28 <dtls1_do_write+0x18a>
  401c14:	ba d8 4e 40 00       	mov    $0x404ed8,%edx
  401c19:	be 16 01 00 00       	mov    $0x116,%esi
  401c1e:	bf b0 4e 40 00       	mov    $0x404eb0,%edi
  401c23:	e8 28 fa ff ff       	callq  401650 <OpenSSLDie@plt>
  401c28:	48 8b 45 b8          	mov    -0x48(%rbp),%rax
  401c2c:	48 8b 80 f0 00 00 00 	mov    0xf0(%rax),%rax
  401c33:	48 85 c0             	test   %rax,%rax
  401c36:	74 20                	je     401c58 <dtls1_do_write+0x1ba>
  401c38:	48 8b 45 b8          	mov    -0x48(%rbp),%rax
  401c3c:	48 8b 80 f0 00 00 00 	mov    0xf0(%rax),%rax
  401c43:	48 89 c7             	mov    %rax,%rdi
  401c46:	e8 a5 f9 ff ff       	callq  4015f0 <EVP_MD_CTX_md@plt>
  401c4b:	48 89 c7             	mov    %rax,%rdi
  401c4e:	e8 dd f9 ff ff       	callq  401630 <EVP_MD_size@plt>
  401c53:	89 45 e0             	mov    %eax,-0x20(%rbp)
  401c56:	eb 07                	jmp    401c5f <dtls1_do_write+0x1c1>
  401c58:	c7 45 e0 00 00 00 00 	movl   $0x0,-0x20(%rbp)
  401c5f:	48 8b 45 b8          	mov    -0x48(%rbp),%rax
  401c63:	48 8b 80 e8 00 00 00 	mov    0xe8(%rax),%rax
  401c6a:	48 85 c0             	test   %rax,%rax
  401c6d:	74 3b                	je     401caa <dtls1_do_write+0x20c>
  401c6f:	48 8b 45 b8          	mov    -0x48(%rbp),%rax
  401c73:	48 8b 80 e8 00 00 00 	mov    0xe8(%rax),%rax
  401c7a:	48 8b 00             	mov    (%rax),%rax
  401c7d:	48 89 c7             	mov    %rax,%rdi
  401c80:	e8 5b f9 ff ff       	callq  4015e0 <EVP_CIPHER_flags@plt>
  401c85:	83 e0 02             	and    $0x2,%eax
  401c88:	48 85 c0             	test   %rax,%rax
  401c8b:	74 1d                	je     401caa <dtls1_do_write+0x20c>
  401c8d:	48 8b 45 b8          	mov    -0x48(%rbp),%rax
  401c91:	48 8b 80 e8 00 00 00 	mov    0xe8(%rax),%rax
  401c98:	48 8b 00             	mov    (%rax),%rax
  401c9b:	48 89 c7             	mov    %rax,%rdi
  401c9e:	e8 cd fa ff ff       	callq  401770 <EVP_CIPHER_block_size@plt>
  401ca3:	01 c0                	add    %eax,%eax
  401ca5:	89 45 dc             	mov    %eax,-0x24(%rbp)
  401ca8:	eb 07                	jmp    401cb1 <dtls1_do_write+0x213>
  401caa:	c7 45 dc 00 00 00 00 	movl   $0x0,-0x24(%rbp)
  401cb1:	c7 45 e4 00 00 00 00 	movl   $0x0,-0x1c(%rbp)
  401cb8:	e9 83 04 00 00       	jmpq   402140 <dtls1_do_write+0x6a2>
  401cbd:	48 8b 45 b8          	mov    -0x48(%rbp),%rax
  401cc1:	48 8b 80 88 00 00 00 	mov    0x88(%rax),%rax
  401cc8:	8b 98 80 02 00 00    	mov    0x280(%rax),%ebx
  401cce:	48 8b 45 b8          	mov    -0x48(%rbp),%rax
  401cd2:	48 89 c7             	mov    %rax,%rdi
  401cd5:	e8 d6 f8 ff ff       	callq  4015b0 <SSL_get_wbio@plt>
  401cda:	b9 00 00 00 00       	mov    $0x0,%ecx
  401cdf:	ba 00 00 00 00       	mov    $0x0,%edx
  401ce4:	be 0d 00 00 00       	mov    $0xd,%esi
  401ce9:	48 89 c7             	mov    %rax,%rdi
  401cec:	e8 4f f8 ff ff       	callq  401540 <BIO_ctrl@plt>
  401cf1:	29 c3                	sub    %eax,%ebx
  401cf3:	89 d8                	mov    %ebx,%eax
  401cf5:	2b 45 e0             	sub    -0x20(%rbp),%eax
  401cf8:	2b 45 dc             	sub    -0x24(%rbp),%eax
  401cfb:	83 e8 0d             	sub    $0xd,%eax
  401cfe:	89 45 ec             	mov    %eax,-0x14(%rbp)
  401d01:	83 7d ec 0c          	cmpl   $0xc,-0x14(%rbp)
  401d05:	7f 51                	jg     401d58 <dtls1_do_write+0x2ba>
  401d07:	48 8b 45 b8          	mov    -0x48(%rbp),%rax
  401d0b:	48 89 c7             	mov    %rax,%rdi
  401d0e:	e8 9d f8 ff ff       	callq  4015b0 <SSL_get_wbio@plt>
  401d13:	b9 00 00 00 00       	mov    $0x0,%ecx
  401d18:	ba 00 00 00 00       	mov    $0x0,%edx
  401d1d:	be 0b 00 00 00       	mov    $0xb,%esi
  401d22:	48 89 c7             	mov    %rax,%rdi
  401d25:	e8 16 f8 ff ff       	callq  401540 <BIO_ctrl@plt>
  401d2a:	89 45 c8             	mov    %eax,-0x38(%rbp)
  401d2d:	83 7d c8 00          	cmpl   $0x0,-0x38(%rbp)
  401d31:	7f 08                	jg     401d3b <dtls1_do_write+0x29d>
  401d33:	8b 45 c8             	mov    -0x38(%rbp),%eax
  401d36:	e9 19 04 00 00       	jmpq   402154 <dtls1_do_write+0x6b6>
  401d3b:	48 8b 45 b8          	mov    -0x48(%rbp),%rax
  401d3f:	48 8b 80 88 00 00 00 	mov    0x88(%rax),%rax
  401d46:	8b 80 80 02 00 00    	mov    0x280(%rax),%eax
  401d4c:	2b 45 e0             	sub    -0x20(%rbp),%eax
  401d4f:	2b 45 dc             	sub    -0x24(%rbp),%eax
  401d52:	83 e8 0d             	sub    $0xd,%eax
  401d55:	89 45 ec             	mov    %eax,-0x14(%rbp)
  401d58:	48 8b 45 b8          	mov    -0x48(%rbp),%rax
  401d5c:	8b 40 60             	mov    0x60(%rax),%eax
  401d5f:	3b 45 ec             	cmp    -0x14(%rbp),%eax
  401d62:	7e 08                	jle    401d6c <dtls1_do_write+0x2ce>
  401d64:	8b 45 ec             	mov    -0x14(%rbp),%eax
  401d67:	89 45 e8             	mov    %eax,-0x18(%rbp)
  401d6a:	eb 0a                	jmp    401d76 <dtls1_do_write+0x2d8>
  401d6c:	48 8b 45 b8          	mov    -0x48(%rbp),%rax
  401d70:	8b 40 60             	mov    0x60(%rax),%eax
  401d73:	89 45 e8             	mov    %eax,-0x18(%rbp)
  401d76:	83 7d b4 16          	cmpl   $0x16,-0x4c(%rbp)
  401d7a:	0f 85 c6 00 00 00    	jne    401e46 <dtls1_do_write+0x3a8>
  401d80:	48 8b 45 b8          	mov    -0x48(%rbp),%rax
  401d84:	8b 40 64             	mov    0x64(%rax),%eax
  401d87:	85 c0                	test   %eax,%eax
  401d89:	74 60                	je     401deb <dtls1_do_write+0x34d>
  401d8b:	48 8b 45 b8          	mov    -0x48(%rbp),%rax
  401d8f:	8b 40 64             	mov    0x64(%rax),%eax
  401d92:	83 f8 0c             	cmp    $0xc,%eax
  401d95:	7f 14                	jg     401dab <dtls1_do_write+0x30d>
  401d97:	ba 20 4f 40 00       	mov    $0x404f20,%edx
  401d9c:	be 3e 01 00 00       	mov    $0x13e,%esi
  401da1:	bf b0 4e 40 00       	mov    $0x404eb0,%edi
  401da6:	e8 a5 f8 ff ff       	callq  401650 <OpenSSLDie@plt>
  401dab:	48 8b 45 b8          	mov    -0x48(%rbp),%rax
  401daf:	8b 40 64             	mov    0x64(%rax),%eax
  401db2:	8d 50 f4             	lea    -0xc(%rax),%edx
  401db5:	48 8b 45 b8          	mov    -0x48(%rbp),%rax
  401db9:	89 50 64             	mov    %edx,0x64(%rax)
  401dbc:	48 8b 45 b8          	mov    -0x48(%rbp),%rax
  401dc0:	8b 40 60             	mov    0x60(%rax),%eax
  401dc3:	8d 50 0c             	lea    0xc(%rax),%edx
  401dc6:	48 8b 45 b8          	mov    -0x48(%rbp),%rax
  401dca:	89 50 60             	mov    %edx,0x60(%rax)
  401dcd:	48 8b 45 b8          	mov    -0x48(%rbp),%rax
  401dd1:	8b 40 60             	mov    0x60(%rax),%eax
  401dd4:	3b 45 ec             	cmp    -0x14(%rbp),%eax
  401dd7:	7e 08                	jle    401de1 <dtls1_do_write+0x343>
  401dd9:	8b 45 ec             	mov    -0x14(%rbp),%eax
  401ddc:	89 45 e8             	mov    %eax,-0x18(%rbp)
  401ddf:	eb 0a                	jmp    401deb <dtls1_do_write+0x34d>
  401de1:	48 8b 45 b8          	mov    -0x48(%rbp),%rax
  401de5:	8b 40 60             	mov    0x60(%rax),%eax
  401de8:	89 45 e8             	mov    %eax,-0x18(%rbp)
  401deb:	8b 45 e8             	mov    -0x18(%rbp),%eax
  401dee:	83 e8 0c             	sub    $0xc,%eax
  401df1:	89 c2                	mov    %eax,%edx
  401df3:	8b 4d e4             	mov    -0x1c(%rbp),%ecx
  401df6:	48 8b 45 b8          	mov    -0x48(%rbp),%rax
  401dfa:	48 89 ce             	mov    %rcx,%rsi
  401dfd:	48 89 c7             	mov    %rax,%rdi
  401e00:	e8 d6 27 00 00       	callq  4045db <dtls1_fix_message_header>
  401e05:	48 8b 45 b8          	mov    -0x48(%rbp),%rax
  401e09:	48 8b 40 50          	mov    0x50(%rax),%rax
  401e0d:	48 8b 50 08          	mov    0x8(%rax),%rdx
  401e11:	48 8b 45 b8          	mov    -0x48(%rbp),%rax
  401e15:	8b 40 64             	mov    0x64(%rax),%eax
  401e18:	48 98                	cltq   
  401e1a:	48 01 c2             	add    %rax,%rdx
  401e1d:	48 8b 45 b8          	mov    -0x48(%rbp),%rax
  401e21:	48 89 d6             	mov    %rdx,%rsi
  401e24:	48 89 c7             	mov    %rax,%rdi
  401e27:	e8 ee 27 00 00       	callq  40461a <dtls1_write_message_header>
  401e2c:	83 7d e8 0b          	cmpl   $0xb,-0x18(%rbp)
  401e30:	77 14                	ja     401e46 <dtls1_do_write+0x3a8>
  401e32:	ba 45 4f 40 00       	mov    $0x404f45,%edx
  401e37:	be 4d 01 00 00       	mov    $0x14d,%esi
  401e3c:	bf b0 4e 40 00       	mov    $0x404eb0,%edi
  401e41:	e8 0a f8 ff ff       	callq  401650 <OpenSSLDie@plt>
  401e46:	8b 55 e8             	mov    -0x18(%rbp),%edx
  401e49:	48 8b 45 b8          	mov    -0x48(%rbp),%rax
  401e4d:	48 8b 40 50          	mov    0x50(%rax),%rax
  401e51:	48 8b 48 08          	mov    0x8(%rax),%rcx
  401e55:	48 8b 45 b8          	mov    -0x48(%rbp),%rax
  401e59:	8b 40 64             	mov    0x64(%rax),%eax
  401e5c:	48 98                	cltq   
  401e5e:	48 8d 3c 01          	lea    (%rcx,%rax,1),%rdi
  401e62:	8b 75 b4             	mov    -0x4c(%rbp),%esi
  401e65:	48 8b 45 b8          	mov    -0x48(%rbp),%rax
  401e69:	89 d1                	mov    %edx,%ecx
  401e6b:	48 89 fa             	mov    %rdi,%rdx
  401e6e:	48 89 c7             	mov    %rax,%rdi
  401e71:	e8 8a f7 ff ff       	callq  401600 <dtls1_write_bytes@plt>
  401e76:	89 45 c8             	mov    %eax,-0x38(%rbp)
  401e79:	83 7d c8 00          	cmpl   $0x0,-0x38(%rbp)
  401e7d:	79 6b                	jns    401eea <dtls1_do_write+0x44c>
  401e7f:	48 8b 45 b8          	mov    -0x48(%rbp),%rax
  401e83:	48 89 c7             	mov    %rax,%rdi
  401e86:	e8 25 f7 ff ff       	callq  4015b0 <SSL_get_wbio@plt>
  401e8b:	b9 00 00 00 00       	mov    $0x0,%ecx
  401e90:	ba 00 00 00 00       	mov    $0x0,%edx
  401e95:	be 2b 00 00 00       	mov    $0x2b,%esi
  401e9a:	48 89 c7             	mov    %rax,%rdi
  401e9d:	e8 9e f6 ff ff       	callq  401540 <BIO_ctrl@plt>
  401ea2:	48 85 c0             	test   %rax,%rax
  401ea5:	7e 39                	jle    401ee0 <dtls1_do_write+0x442>
  401ea7:	48 8b 45 b8          	mov    -0x48(%rbp),%rax
  401eab:	48 8b 98 88 00 00 00 	mov    0x88(%rax),%rbx
  401eb2:	48 8b 45 b8          	mov    -0x48(%rbp),%rax
  401eb6:	48 89 c7             	mov    %rax,%rdi
  401eb9:	e8 f2 f6 ff ff       	callq  4015b0 <SSL_get_wbio@plt>
  401ebe:	b9 00 00 00 00       	mov    $0x0,%ecx
  401ec3:	ba 00 00 00 00       	mov    $0x0,%edx
  401ec8:	be 28 00 00 00       	mov    $0x28,%esi
  401ecd:	48 89 c7             	mov    %rax,%rdi
  401ed0:	e8 6b f6 ff ff       	callq  401540 <BIO_ctrl@plt>
  401ed5:	89 83 80 02 00 00    	mov    %eax,0x280(%rbx)
  401edb:	e9 60 02 00 00       	jmpq   402140 <dtls1_do_write+0x6a2>
  401ee0:	b8 ff ff ff ff       	mov    $0xffffffff,%eax
  401ee5:	e9 6a 02 00 00       	jmpq   402154 <dtls1_do_write+0x6b6>
  401eea:	8b 45 c8             	mov    -0x38(%rbp),%eax
  401eed:	3b 45 e8             	cmp    -0x18(%rbp),%eax
  401ef0:	74 14                	je     401f06 <dtls1_do_write+0x468>
  401ef2:	ba 63 4f 40 00       	mov    $0x404f63,%edx
  401ef7:	be 66 01 00 00       	mov    $0x166,%esi
  401efc:	bf b0 4e 40 00       	mov    $0x404eb0,%edi
  401f01:	e8 4a f7 ff ff       	callq  401650 <OpenSSLDie@plt>
  401f06:	83 7d b4 16          	cmpl   $0x16,-0x4c(%rbp)
  401f0a:	0f 85 7a 01 00 00    	jne    40208a <dtls1_do_write+0x5ec>
  401f10:	48 8b 45 b8          	mov    -0x48(%rbp),%rax
  401f14:	48 8b 80 88 00 00 00 	mov    0x88(%rax),%rax
  401f1b:	8b 80 70 03 00 00    	mov    0x370(%rax),%eax
  401f21:	85 c0                	test   %eax,%eax
  401f23:	0f 85 61 01 00 00    	jne    40208a <dtls1_do_write+0x5ec>
  401f29:	48 8b 45 b8          	mov    -0x48(%rbp),%rax
  401f2d:	48 8b 40 50          	mov    0x50(%rax),%rax
  401f31:	48 8b 50 08          	mov    0x8(%rax),%rdx
  401f35:	48 8b 45 b8          	mov    -0x48(%rbp),%rax
  401f39:	8b 40 64             	mov    0x64(%rax),%eax
  401f3c:	48 98                	cltq   
  401f3e:	48 01 d0             	add    %rdx,%rax
  401f41:	48 89 45 d0          	mov    %rax,-0x30(%rbp)
  401f45:	48 8b 45 b8          	mov    -0x48(%rbp),%rax
  401f49:	48 8b 80 88 00 00 00 	mov    0x88(%rax),%rax
  401f50:	48 05 88 02 00 00    	add    $0x288,%rax
  401f56:	48 89 45 c0          	mov    %rax,-0x40(%rbp)
  401f5a:	83 7d e4 00          	cmpl   $0x0,-0x1c(%rbp)
  401f5e:	0f 85 02 01 00 00    	jne    402066 <dtls1_do_write+0x5c8>
  401f64:	48 8b 45 b8          	mov    -0x48(%rbp),%rax
  401f68:	8b 00                	mov    (%rax),%eax
  401f6a:	3d 00 01 00 00       	cmp    $0x100,%eax
  401f6f:	0f 84 f1 00 00 00    	je     402066 <dtls1_do_write+0x5c8>
  401f75:	48 8b 45 d0          	mov    -0x30(%rbp),%rax
  401f79:	48 8d 50 01          	lea    0x1(%rax),%rdx
  401f7d:	48 89 55 d0          	mov    %rdx,-0x30(%rbp)
  401f81:	48 8b 55 c0          	mov    -0x40(%rbp),%rdx
  401f85:	0f b6 12             	movzbl (%rdx),%edx
  401f88:	88 10                	mov    %dl,(%rax)
  401f8a:	48 8b 45 c0          	mov    -0x40(%rbp),%rax
  401f8e:	48 8b 40 08          	mov    0x8(%rax),%rax
  401f92:	48 c1 e8 10          	shr    $0x10,%rax
  401f96:	89 c2                	mov    %eax,%edx
  401f98:	48 8b 45 d0          	mov    -0x30(%rbp),%rax
  401f9c:	88 10                	mov    %dl,(%rax)
  401f9e:	48 8b 45 d0          	mov    -0x30(%rbp),%rax
  401fa2:	48 8d 50 01          	lea    0x1(%rax),%rdx
  401fa6:	48 8b 45 c0          	mov    -0x40(%rbp),%rax
  401faa:	48 8b 40 08          	mov    0x8(%rax),%rax
  401fae:	48 c1 e8 08          	shr    $0x8,%rax
  401fb2:	88 02                	mov    %al,(%rdx)
  401fb4:	48 8b 45 d0          	mov    -0x30(%rbp),%rax
  401fb8:	48 8d 50 02          	lea    0x2(%rax),%rdx
  401fbc:	48 8b 45 c0          	mov    -0x40(%rbp),%rax
  401fc0:	48 8b 40 08          	mov    0x8(%rax),%rax
  401fc4:	88 02                	mov    %al,(%rdx)
  401fc6:	48 83 45 d0 03       	addq   $0x3,-0x30(%rbp)
  401fcb:	48 8b 45 c0          	mov    -0x40(%rbp),%rax
  401fcf:	0f b7 40 10          	movzwl 0x10(%rax),%eax
  401fd3:	66 c1 e8 08          	shr    $0x8,%ax
  401fd7:	89 c2                	mov    %eax,%edx
  401fd9:	48 8b 45 d0          	mov    -0x30(%rbp),%rax
  401fdd:	88 10                	mov    %dl,(%rax)
  401fdf:	48 8b 45 d0          	mov    -0x30(%rbp),%rax
  401fe3:	48 8d 50 01          	lea    0x1(%rax),%rdx
  401fe7:	48 8b 45 c0          	mov    -0x40(%rbp),%rax
  401feb:	0f b7 40 10          	movzwl 0x10(%rax),%eax
  401fef:	88 02                	mov    %al,(%rdx)
  401ff1:	48 83 45 d0 02       	addq   $0x2,-0x30(%rbp)
  401ff6:	48 8b 45 d0          	mov    -0x30(%rbp),%rax
  401ffa:	c6 00 00             	movb   $0x0,(%rax)
  401ffd:	48 8b 45 d0          	mov    -0x30(%rbp),%rax
  402001:	48 83 c0 01          	add    $0x1,%rax
  402005:	c6 00 00             	movb   $0x0,(%rax)
  402008:	48 8b 45 d0          	mov    -0x30(%rbp),%rax
  40200c:	48 83 c0 02          	add    $0x2,%rax
  402010:	c6 00 00             	movb   $0x0,(%rax)
  402013:	48 83 45 d0 03       	addq   $0x3,-0x30(%rbp)
  402018:	48 8b 45 c0          	mov    -0x40(%rbp),%rax
  40201c:	48 8b 40 08          	mov    0x8(%rax),%rax
  402020:	48 c1 e8 10          	shr    $0x10,%rax
  402024:	89 c2                	mov    %eax,%edx
  402026:	48 8b 45 d0          	mov    -0x30(%rbp),%rax
  40202a:	88 10                	mov    %dl,(%rax)
  40202c:	48 8b 45 d0          	mov    -0x30(%rbp),%rax
  402030:	48 8d 50 01          	lea    0x1(%rax),%rdx
  402034:	48 8b 45 c0          	mov    -0x40(%rbp),%rax
  402038:	48 8b 40 08          	mov    0x8(%rax),%rax
  40203c:	48 c1 e8 08          	shr    $0x8,%rax
  402040:	88 02                	mov    %al,(%rdx)
  402042:	48 8b 45 d0          	mov    -0x30(%rbp),%rax
  402046:	48 8d 50 02          	lea    0x2(%rax),%rdx
  40204a:	48 8b 45 c0          	mov    -0x40(%rbp),%rax
  40204e:	48 8b 40 08          	mov    0x8(%rax),%rax
  402052:	88 02                	mov    %al,(%rdx)
  402054:	48 83 45 d0 03       	addq   $0x3,-0x30(%rbp)
  402059:	48 83 6d d0 0c       	subq   $0xc,-0x30(%rbp)
  40205e:	8b 45 c8             	mov    -0x38(%rbp),%eax
  402061:	89 45 cc             	mov    %eax,-0x34(%rbp)
  402064:	eb 0e                	jmp    402074 <dtls1_do_write+0x5d6>
  402066:	48 83 45 d0 0c       	addq   $0xc,-0x30(%rbp)
  40206b:	8b 45 c8             	mov    -0x38(%rbp),%eax
  40206e:	83 e8 0c             	sub    $0xc,%eax
  402071:	89 45 cc             	mov    %eax,-0x34(%rbp)
  402074:	8b 55 cc             	mov    -0x34(%rbp),%edx
  402077:	48 8b 4d d0          	mov    -0x30(%rbp),%rcx
  40207b:	48 8b 45 b8          	mov    -0x48(%rbp),%rax
  40207f:	48 89 ce             	mov    %rcx,%rsi
  402082:	48 89 c7             	mov    %rax,%rdi
  402085:	e8 46 f5 ff ff       	callq  4015d0 <ssl3_finish_mac@plt>
  40208a:	48 8b 45 b8          	mov    -0x48(%rbp),%rax
  40208e:	8b 40 60             	mov    0x60(%rax),%eax
  402091:	3b 45 c8             	cmp    -0x38(%rbp),%eax
  402094:	75 7a                	jne    402110 <dtls1_do_write+0x672>
  402096:	48 8b 45 b8          	mov    -0x48(%rbp),%rax
  40209a:	48 8b 80 98 00 00 00 	mov    0x98(%rax),%rax
  4020a1:	48 85 c0             	test   %rax,%rax
  4020a4:	74 4d                	je     4020f3 <dtls1_do_write+0x655>
  4020a6:	48 8b 45 b8          	mov    -0x48(%rbp),%rax
  4020aa:	48 8b 80 98 00 00 00 	mov    0x98(%rax),%rax
  4020b1:	48 8b 55 b8          	mov    -0x48(%rbp),%rdx
  4020b5:	48 8b ba a0 00 00 00 	mov    0xa0(%rdx),%rdi
  4020bc:	48 8b 55 b8          	mov    -0x48(%rbp),%rdx
  4020c0:	8b 4a 64             	mov    0x64(%rdx),%ecx
  4020c3:	48 8b 55 b8          	mov    -0x48(%rbp),%rdx
  4020c7:	8b 52 60             	mov    0x60(%rdx),%edx
  4020ca:	01 ca                	add    %ecx,%edx
  4020cc:	4c 63 c2             	movslq %edx,%r8
  4020cf:	48 8b 55 b8          	mov    -0x48(%rbp),%rdx
  4020d3:	48 8b 52 50          	mov    0x50(%rdx),%rdx
  4020d7:	48 8b 4a 08          	mov    0x8(%rdx),%rcx
  4020db:	48 8b 55 b8          	mov    -0x48(%rbp),%rdx
  4020df:	8b 32                	mov    (%rdx),%esi
  4020e1:	4c 8b 4d b8          	mov    -0x48(%rbp),%r9
  4020e5:	8b 55 b4             	mov    -0x4c(%rbp),%edx
  4020e8:	48 89 3c 24          	mov    %rdi,(%rsp)
  4020ec:	bf 01 00 00 00       	mov    $0x1,%edi
  4020f1:	ff d0                	callq  *%rax
  4020f3:	48 8b 45 b8          	mov    -0x48(%rbp),%rax
  4020f7:	c7 40 64 00 00 00 00 	movl   $0x0,0x64(%rax)
  4020fe:	48 8b 45 b8          	mov    -0x48(%rbp),%rax
  402102:	c7 40 60 00 00 00 00 	movl   $0x0,0x60(%rax)
  402109:	b8 01 00 00 00       	mov    $0x1,%eax
  40210e:	eb 44                	jmp    402154 <dtls1_do_write+0x6b6>
  402110:	48 8b 45 b8          	mov    -0x48(%rbp),%rax
  402114:	8b 50 64             	mov    0x64(%rax),%edx
  402117:	8b 45 c8             	mov    -0x38(%rbp),%eax
  40211a:	01 c2                	add    %eax,%edx
  40211c:	48 8b 45 b8          	mov    -0x48(%rbp),%rax
  402120:	89 50 64             	mov    %edx,0x64(%rax)
  402123:	48 8b 45 b8          	mov    -0x48(%rbp),%rax
  402127:	8b 40 60             	mov    0x60(%rax),%eax
  40212a:	2b 45 c8             	sub    -0x38(%rbp),%eax
  40212d:	89 c2                	mov    %eax,%edx
  40212f:	48 8b 45 b8          	mov    -0x48(%rbp),%rax
  402133:	89 50 60             	mov    %edx,0x60(%rax)
  402136:	83 6d c8 0c          	subl   $0xc,-0x38(%rbp)
  40213a:	8b 45 c8             	mov    -0x38(%rbp),%eax
  40213d:	01 45 e4             	add    %eax,-0x1c(%rbp)
  402140:	48 8b 45 b8          	mov    -0x48(%rbp),%rax
  402144:	8b 40 60             	mov    0x60(%rax),%eax
  402147:	85 c0                	test   %eax,%eax
  402149:	0f 85 6e fb ff ff    	jne    401cbd <dtls1_do_write+0x21f>
  40214f:	b8 00 00 00 00       	mov    $0x0,%eax
  402154:	48 83 c4 58          	add    $0x58,%rsp
  402158:	5b                   	pop    %rbx
  402159:	5d                   	pop    %rbp
  40215a:	c3                   	retq   

000000000040215b <dtls1_get_message>:
  40215b:	55                   	push   %rbp
  40215c:	48 89 e5             	mov    %rsp,%rbp
  40215f:	48 83 ec 60          	sub    $0x60,%rsp
  402163:	48 89 7d c8          	mov    %rdi,-0x38(%rbp)
  402167:	89 75 c4             	mov    %esi,-0x3c(%rbp)
  40216a:	89 55 c0             	mov    %edx,-0x40(%rbp)
  40216d:	89 4d bc             	mov    %ecx,-0x44(%rbp)
  402170:	4c 89 45 b0          	mov    %r8,-0x50(%rbp)
  402174:	4c 89 4d a8          	mov    %r9,-0x58(%rbp)
  402178:	48 8b 45 c8          	mov    -0x38(%rbp),%rax
  40217c:	48 8b 80 80 00 00 00 	mov    0x80(%rax),%rax
  402183:	8b 80 c4 03 00 00    	mov    0x3c4(%rax),%eax
  402189:	85 c0                	test   %eax,%eax
  40218b:	0f 84 cd 00 00 00    	je     40225e <dtls1_get_message+0x103>
  402191:	48 8b 45 c8          	mov    -0x38(%rbp),%rax
  402195:	48 8b 80 80 00 00 00 	mov    0x80(%rax),%rax
  40219c:	c7 80 c4 03 00 00 00 	movl   $0x0,0x3c4(%rax)
  4021a3:	00 00 00 
  4021a6:	83 7d bc 00          	cmpl   $0x0,-0x44(%rbp)
  4021aa:	78 67                	js     402213 <dtls1_get_message+0xb8>
  4021ac:	48 8b 45 c8          	mov    -0x38(%rbp),%rax
  4021b0:	48 8b 80 80 00 00 00 	mov    0x80(%rax),%rax
  4021b7:	8b 80 a0 03 00 00    	mov    0x3a0(%rax),%eax
  4021bd:	3b 45 bc             	cmp    -0x44(%rbp),%eax
  4021c0:	74 51                	je     402213 <dtls1_get_message+0xb8>
  4021c2:	c7 45 ec 0a 00 00 00 	movl   $0xa,-0x14(%rbp)
  4021c9:	41 b8 ae 01 00 00    	mov    $0x1ae,%r8d
  4021cf:	b9 b0 4e 40 00       	mov    $0x404eb0,%ecx
  4021d4:	ba f4 00 00 00       	mov    $0xf4,%edx
  4021d9:	be fc 00 00 00       	mov    $0xfc,%esi
  4021de:	bf 14 00 00 00       	mov    $0x14,%edi
  4021e3:	e8 b8 f4 ff ff       	callq  4016a0 <ERR_put_error@plt>
  4021e8:	90                   	nop
  4021e9:	8b 55 ec             	mov    -0x14(%rbp),%edx
  4021ec:	48 8b 45 c8          	mov    -0x38(%rbp),%rax
  4021f0:	be 02 00 00 00       	mov    $0x2,%esi
  4021f5:	48 89 c7             	mov    %rax,%rdi
  4021f8:	e8 93 f4 ff ff       	callq  401690 <ssl3_send_alert@plt>
  4021fd:	48 8b 45 a8          	mov    -0x58(%rbp),%rax
  402201:	c7 00 00 00 00 00    	movl   $0x0,(%rax)
  402207:	48 c7 c0 ff ff ff ff 	mov    $0xffffffffffffffff,%rax
  40220e:	e9 8d 02 00 00       	jmpq   4024a0 <dtls1_get_message+0x345>
  402213:	48 8b 45 a8          	mov    -0x58(%rbp),%rax
  402217:	c7 00 01 00 00 00    	movl   $0x1,(%rax)
  40221d:	48 8b 45 c8          	mov    -0x38(%rbp),%rax
  402221:	48 8b 40 50          	mov    0x50(%rax),%rax
  402225:	48 8b 40 08          	mov    0x8(%rax),%rax
  402229:	48 8d 50 0c          	lea    0xc(%rax),%rdx
  40222d:	48 8b 45 c8          	mov    -0x38(%rbp),%rax
  402231:	48 89 50 58          	mov    %rdx,0x58(%rax)
  402235:	48 8b 45 c8          	mov    -0x38(%rbp),%rax
  402239:	48 8b 80 80 00 00 00 	mov    0x80(%rax),%rax
  402240:	48 8b 80 98 03 00 00 	mov    0x398(%rax),%rax
  402247:	89 c2                	mov    %eax,%edx
  402249:	48 8b 45 c8          	mov    -0x38(%rbp),%rax
  40224d:	89 50 60             	mov    %edx,0x60(%rax)
  402250:	48 8b 45 c8          	mov    -0x38(%rbp),%rax
  402254:	8b 40 60             	mov    0x60(%rax),%eax
  402257:	48 98                	cltq   
  402259:	e9 42 02 00 00       	jmpq   4024a0 <dtls1_get_message+0x345>
  40225e:	48 8b 45 c8          	mov    -0x38(%rbp),%rax
  402262:	48 8b 80 88 00 00 00 	mov    0x88(%rax),%rax
  402269:	48 05 e0 02 00 00    	add    $0x2e0,%rax
  40226f:	48 89 45 e0          	mov    %rax,-0x20(%rbp)
  402273:	48 8b 45 e0          	mov    -0x20(%rbp),%rax
  402277:	ba 58 00 00 00       	mov    $0x58,%edx
  40227c:	be 00 00 00 00       	mov    $0x0,%esi
  402281:	48 89 c7             	mov    %rax,%rdi
  402284:	e8 07 f3 ff ff       	callq  401590 <memset@plt>
  402289:	48 8b 7d a8          	mov    -0x58(%rbp),%rdi
  40228d:	48 8b 4d b0          	mov    -0x50(%rbp),%rcx
  402291:	8b 55 c0             	mov    -0x40(%rbp),%edx
  402294:	8b 75 c4             	mov    -0x3c(%rbp),%esi
  402297:	48 8b 45 c8          	mov    -0x38(%rbp),%rax
  40229b:	49 89 f8             	mov    %rdi,%r8
  40229e:	48 89 c7             	mov    %rax,%rdi
  4022a1:	e8 49 0e 00 00       	callq  4030ef <dtls1_get_message_fragment>
  4022a6:	89 45 dc             	mov    %eax,-0x24(%rbp)
  4022a9:	83 7d dc fe          	cmpl   $0xfffffffe,-0x24(%rbp)
  4022ad:	74 da                	je     402289 <dtls1_get_message+0x12e>
  4022af:	83 7d dc fd          	cmpl   $0xfffffffd,-0x24(%rbp)
  4022b3:	74 d4                	je     402289 <dtls1_get_message+0x12e>
  4022b5:	83 7d dc 00          	cmpl   $0x0,-0x24(%rbp)
  4022b9:	7f 14                	jg     4022cf <dtls1_get_message+0x174>
  4022bb:	48 8b 45 a8          	mov    -0x58(%rbp),%rax
  4022bf:	8b 00                	mov    (%rax),%eax
  4022c1:	85 c0                	test   %eax,%eax
  4022c3:	75 0a                	jne    4022cf <dtls1_get_message+0x174>
  4022c5:	8b 45 dc             	mov    -0x24(%rbp),%eax
  4022c8:	48 98                	cltq   
  4022ca:	e9 d1 01 00 00       	jmpq   4024a0 <dtls1_get_message+0x345>
  4022cf:	48 8b 45 c8          	mov    -0x38(%rbp),%rax
  4022d3:	48 8b 40 50          	mov    0x50(%rax),%rax
  4022d7:	48 8b 40 08          	mov    0x8(%rax),%rax
  4022db:	48 89 45 f8          	mov    %rax,-0x8(%rbp)
  4022df:	48 8b 45 e0          	mov    -0x20(%rbp),%rax
  4022e3:	48 8b 40 08          	mov    0x8(%rax),%rax
  4022e7:	48 89 45 f0          	mov    %rax,-0x10(%rbp)
  4022eb:	48 8b 45 f8          	mov    -0x8(%rbp),%rax
  4022ef:	48 8d 50 01          	lea    0x1(%rax),%rdx
  4022f3:	48 89 55 f8          	mov    %rdx,-0x8(%rbp)
  4022f7:	48 8b 55 e0          	mov    -0x20(%rbp),%rdx
  4022fb:	0f b6 12             	movzbl (%rdx),%edx
  4022fe:	88 10                	mov    %dl,(%rax)
  402300:	48 8b 45 f0          	mov    -0x10(%rbp),%rax
  402304:	48 c1 e8 10          	shr    $0x10,%rax
  402308:	89 c2                	mov    %eax,%edx
  40230a:	48 8b 45 f8          	mov    -0x8(%rbp),%rax
  40230e:	88 10                	mov    %dl,(%rax)
  402310:	48 8b 45 f8          	mov    -0x8(%rbp),%rax
  402314:	48 8d 50 01          	lea    0x1(%rax),%rdx
  402318:	48 8b 45 f0          	mov    -0x10(%rbp),%rax
  40231c:	48 c1 e8 08          	shr    $0x8,%rax
  402320:	88 02                	mov    %al,(%rdx)
  402322:	48 8b 45 f8          	mov    -0x8(%rbp),%rax
  402326:	48 8d 50 02          	lea    0x2(%rax),%rdx
  40232a:	48 8b 45 f0          	mov    -0x10(%rbp),%rax
  40232e:	88 02                	mov    %al,(%rdx)
  402330:	48 83 45 f8 03       	addq   $0x3,-0x8(%rbp)
  402335:	48 8b 45 e0          	mov    -0x20(%rbp),%rax
  402339:	0f b7 40 10          	movzwl 0x10(%rax),%eax
  40233d:	66 c1 e8 08          	shr    $0x8,%ax
  402341:	89 c2                	mov    %eax,%edx
  402343:	48 8b 45 f8          	mov    -0x8(%rbp),%rax
  402347:	88 10                	mov    %dl,(%rax)
  402349:	48 8b 45 f8          	mov    -0x8(%rbp),%rax
  40234d:	48 8d 50 01          	lea    0x1(%rax),%rdx
  402351:	48 8b 45 e0          	mov    -0x20(%rbp),%rax
  402355:	0f b7 40 10          	movzwl 0x10(%rax),%eax
  402359:	88 02                	mov    %al,(%rdx)
  40235b:	48 83 45 f8 02       	addq   $0x2,-0x8(%rbp)
  402360:	48 8b 45 f8          	mov    -0x8(%rbp),%rax
  402364:	c6 00 00             	movb   $0x0,(%rax)
  402367:	48 8b 45 f8          	mov    -0x8(%rbp),%rax
  40236b:	48 83 c0 01          	add    $0x1,%rax
  40236f:	c6 00 00             	movb   $0x0,(%rax)
  402372:	48 8b 45 f8          	mov    -0x8(%rbp),%rax
  402376:	48 83 c0 02          	add    $0x2,%rax
  40237a:	c6 00 00             	movb   $0x0,(%rax)
  40237d:	48 83 45 f8 03       	addq   $0x3,-0x8(%rbp)
  402382:	48 8b 45 f0          	mov    -0x10(%rbp),%rax
  402386:	48 c1 e8 10          	shr    $0x10,%rax
  40238a:	89 c2                	mov    %eax,%edx
  40238c:	48 8b 45 f8          	mov    -0x8(%rbp),%rax
  402390:	88 10                	mov    %dl,(%rax)
  402392:	48 8b 45 f8          	mov    -0x8(%rbp),%rax
  402396:	48 8d 50 01          	lea    0x1(%rax),%rdx
  40239a:	48 8b 45 f0          	mov    -0x10(%rbp),%rax
  40239e:	48 c1 e8 08          	shr    $0x8,%rax
  4023a2:	88 02                	mov    %al,(%rdx)
  4023a4:	48 8b 45 f8          	mov    -0x8(%rbp),%rax
  4023a8:	48 8d 50 02          	lea    0x2(%rax),%rdx
  4023ac:	48 8b 45 f0          	mov    -0x10(%rbp),%rax
  4023b0:	88 02                	mov    %al,(%rdx)
  4023b2:	48 83 45 f8 03       	addq   $0x3,-0x8(%rbp)
  4023b7:	48 8b 45 c8          	mov    -0x38(%rbp),%rax
  4023bb:	8b 00                	mov    (%rax),%eax
  4023bd:	3d 00 01 00 00       	cmp    $0x100,%eax
  4023c2:	74 0a                	je     4023ce <dtls1_get_message+0x273>
  4023c4:	48 83 6d f8 0c       	subq   $0xc,-0x8(%rbp)
  4023c9:	48 83 45 f0 0c       	addq   $0xc,-0x10(%rbp)
  4023ce:	48 8b 45 f0          	mov    -0x10(%rbp),%rax
  4023d2:	89 c2                	mov    %eax,%edx
  4023d4:	48 8b 4d f8          	mov    -0x8(%rbp),%rcx
  4023d8:	48 8b 45 c8          	mov    -0x38(%rbp),%rax
  4023dc:	48 89 ce             	mov    %rcx,%rsi
  4023df:	48 89 c7             	mov    %rax,%rdi
  4023e2:	e8 e9 f1 ff ff       	callq  4015d0 <ssl3_finish_mac@plt>
  4023e7:	48 8b 45 c8          	mov    -0x38(%rbp),%rax
  4023eb:	48 8b 80 98 00 00 00 	mov    0x98(%rax),%rax
  4023f2:	48 85 c0             	test   %rax,%rax
  4023f5:	74 41                	je     402438 <dtls1_get_message+0x2dd>
  4023f7:	48 8b 45 c8          	mov    -0x38(%rbp),%rax
  4023fb:	48 8b 80 98 00 00 00 	mov    0x98(%rax),%rax
  402402:	48 8b 55 c8          	mov    -0x38(%rbp),%rdx
  402406:	48 8b 8a a0 00 00 00 	mov    0xa0(%rdx),%rcx
  40240d:	48 8b 55 c8          	mov    -0x38(%rbp),%rdx
  402411:	8b 32                	mov    (%rdx),%esi
  402413:	4c 8b 45 c8          	mov    -0x38(%rbp),%r8
  402417:	48 8b 7d f0          	mov    -0x10(%rbp),%rdi
  40241b:	48 8b 55 f8          	mov    -0x8(%rbp),%rdx
  40241f:	48 89 0c 24          	mov    %rcx,(%rsp)
  402423:	4d 89 c1             	mov    %r8,%r9
  402426:	49 89 f8             	mov    %rdi,%r8
  402429:	48 89 d1             	mov    %rdx,%rcx
  40242c:	ba 16 00 00 00       	mov    $0x16,%edx
  402431:	bf 00 00 00 00       	mov    $0x0,%edi
  402436:	ff d0                	callq  *%rax
  402438:	48 8b 45 e0          	mov    -0x20(%rbp),%rax
  40243c:	ba 58 00 00 00       	mov    $0x58,%edx
  402441:	be 00 00 00 00       	mov    $0x0,%esi
  402446:	48 89 c7             	mov    %rax,%rdi
  402449:	e8 42 f1 ff ff       	callq  401590 <memset@plt>
  40244e:	48 8b 45 c8          	mov    -0x38(%rbp),%rax
  402452:	48 8b 80 88 00 00 00 	mov    0x88(%rax),%rax
  402459:	8b 80 78 03 00 00    	mov    0x378(%rax),%eax
  40245f:	85 c0                	test   %eax,%eax
  402461:	75 1c                	jne    40247f <dtls1_get_message+0x324>
  402463:	48 8b 45 c8          	mov    -0x38(%rbp),%rax
  402467:	48 8b 80 88 00 00 00 	mov    0x88(%rax),%rax
  40246e:	0f b7 90 34 02 00 00 	movzwl 0x234(%rax),%edx
  402475:	83 c2 01             	add    $0x1,%edx
  402478:	66 89 90 34 02 00 00 	mov    %dx,0x234(%rax)
  40247f:	48 8b 45 c8          	mov    -0x38(%rbp),%rax
  402483:	48 8b 40 50          	mov    0x50(%rax),%rax
  402487:	48 8b 40 08          	mov    0x8(%rax),%rax
  40248b:	48 8d 50 0c          	lea    0xc(%rax),%rdx
  40248f:	48 8b 45 c8          	mov    -0x38(%rbp),%rax
  402493:	48 89 50 58          	mov    %rdx,0x58(%rax)
  402497:	48 8b 45 c8          	mov    -0x38(%rbp),%rax
  40249b:	8b 40 60             	mov    0x60(%rax),%eax
  40249e:	48 98                	cltq   
  4024a0:	c9                   	leaveq 
  4024a1:	c3                   	retq   

00000000004024a2 <dtls1_preprocess_fragment>:
  4024a2:	55                   	push   %rbp
  4024a3:	48 89 e5             	mov    %rsp,%rbp
  4024a6:	48 83 ec 40          	sub    $0x40,%rsp
  4024aa:	48 89 7d d8          	mov    %rdi,-0x28(%rbp)
  4024ae:	48 89 75 d0          	mov    %rsi,-0x30(%rbp)
  4024b2:	89 55 cc             	mov    %edx,-0x34(%rbp)
  4024b5:	48 8b 45 d0          	mov    -0x30(%rbp),%rax
  4024b9:	48 8b 40 08          	mov    0x8(%rax),%rax
  4024bd:	48 89 45 f8          	mov    %rax,-0x8(%rbp)
  4024c1:	48 8b 45 d0          	mov    -0x30(%rbp),%rax
  4024c5:	48 8b 40 18          	mov    0x18(%rax),%rax
  4024c9:	48 89 45 f0          	mov    %rax,-0x10(%rbp)
  4024cd:	48 8b 45 d0          	mov    -0x30(%rbp),%rax
  4024d1:	48 8b 40 20          	mov    0x20(%rax),%rax
  4024d5:	48 89 45 e8          	mov    %rax,-0x18(%rbp)
  4024d9:	48 8b 45 e8          	mov    -0x18(%rbp),%rax
  4024dd:	48 8b 55 f0          	mov    -0x10(%rbp),%rdx
  4024e1:	48 01 d0             	add    %rdx,%rax
  4024e4:	48 3b 45 f8          	cmp    -0x8(%rbp),%rax
  4024e8:	76 29                	jbe    402513 <dtls1_preprocess_fragment+0x71>
  4024ea:	41 b8 f1 01 00 00    	mov    $0x1f1,%r8d
  4024f0:	b9 b0 4e 40 00       	mov    $0x404eb0,%ecx
  4024f5:	ba 98 00 00 00       	mov    $0x98,%edx
  4024fa:	be 20 01 00 00       	mov    $0x120,%esi
  4024ff:	bf 14 00 00 00       	mov    $0x14,%edi
  402504:	e8 97 f1 ff ff       	callq  4016a0 <ERR_put_error@plt>
  402509:	b8 2f 00 00 00       	mov    $0x2f,%eax
  40250e:	e9 5f 01 00 00       	jmpq   402672 <dtls1_preprocess_fragment+0x1d0>
  402513:	48 8b 45 e8          	mov    -0x18(%rbp),%rax
  402517:	48 8b 55 f0          	mov    -0x10(%rbp),%rdx
  40251b:	48 01 c2             	add    %rax,%rdx
  40251e:	8b 45 cc             	mov    -0x34(%rbp),%eax
  402521:	48 98                	cltq   
  402523:	48 39 c2             	cmp    %rax,%rdx
  402526:	76 29                	jbe    402551 <dtls1_preprocess_fragment+0xaf>
  402528:	41 b8 f7 01 00 00    	mov    $0x1f7,%r8d
  40252e:	b9 b0 4e 40 00       	mov    $0x404eb0,%ecx
  402533:	ba 98 00 00 00       	mov    $0x98,%edx
  402538:	be 20 01 00 00       	mov    $0x120,%esi
  40253d:	bf 14 00 00 00       	mov    $0x14,%edi
  402542:	e8 59 f1 ff ff       	callq  4016a0 <ERR_put_error@plt>
  402547:	b8 2f 00 00 00       	mov    $0x2f,%eax
  40254c:	e9 21 01 00 00       	jmpq   402672 <dtls1_preprocess_fragment+0x1d0>
  402551:	48 8b 45 d8          	mov    -0x28(%rbp),%rax
  402555:	48 8b 80 88 00 00 00 	mov    0x88(%rax),%rax
  40255c:	48 8b 80 f8 02 00 00 	mov    0x2f8(%rax),%rax
  402563:	48 85 c0             	test   %rax,%rax
  402566:	0f 85 c3 00 00 00    	jne    40262f <dtls1_preprocess_fragment+0x18d>
  40256c:	48 8b 45 f8          	mov    -0x8(%rbp),%rax
  402570:	48 8d 50 0c          	lea    0xc(%rax),%rdx
  402574:	48 8b 45 d8          	mov    -0x28(%rbp),%rax
  402578:	48 8b 40 50          	mov    0x50(%rax),%rax
  40257c:	48 89 d6             	mov    %rdx,%rsi
  40257f:	48 89 c7             	mov    %rax,%rdi
  402582:	e8 b9 f0 ff ff       	callq  401640 <BUF_MEM_grow_clean@plt>
  402587:	85 c0                	test   %eax,%eax
  402589:	75 29                	jne    4025b4 <dtls1_preprocess_fragment+0x112>
  40258b:	41 b8 01 02 00 00    	mov    $0x201,%r8d
  402591:	b9 b0 4e 40 00       	mov    $0x404eb0,%ecx
  402596:	ba 07 00 00 00       	mov    $0x7,%edx
  40259b:	be 20 01 00 00       	mov    $0x120,%esi
  4025a0:	bf 14 00 00 00       	mov    $0x14,%edi
  4025a5:	e8 f6 f0 ff ff       	callq  4016a0 <ERR_put_error@plt>
  4025aa:	b8 50 00 00 00       	mov    $0x50,%eax
  4025af:	e9 be 00 00 00       	jmpq   402672 <dtls1_preprocess_fragment+0x1d0>
  4025b4:	48 8b 45 d8          	mov    -0x28(%rbp),%rax
  4025b8:	48 8b 80 80 00 00 00 	mov    0x80(%rax),%rax
  4025bf:	48 8b 55 f8          	mov    -0x8(%rbp),%rdx
  4025c3:	48 89 90 98 03 00 00 	mov    %rdx,0x398(%rax)
  4025ca:	48 8b 45 d8          	mov    -0x28(%rbp),%rax
  4025ce:	48 8b 80 88 00 00 00 	mov    0x88(%rax),%rax
  4025d5:	48 8b 55 f8          	mov    -0x8(%rbp),%rdx
  4025d9:	48 89 90 e8 02 00 00 	mov    %rdx,0x2e8(%rax)
  4025e0:	48 8b 45 d8          	mov    -0x28(%rbp),%rax
  4025e4:	48 8b 80 80 00 00 00 	mov    0x80(%rax),%rax
  4025eb:	48 8b 55 d0          	mov    -0x30(%rbp),%rdx
  4025ef:	0f b6 12             	movzbl (%rdx),%edx
  4025f2:	0f b6 d2             	movzbl %dl,%edx
  4025f5:	89 90 a0 03 00 00    	mov    %edx,0x3a0(%rax)
  4025fb:	48 8b 45 d8          	mov    -0x28(%rbp),%rax
  4025ff:	48 8b 80 88 00 00 00 	mov    0x88(%rax),%rax
  402606:	48 8b 55 d0          	mov    -0x30(%rbp),%rdx
  40260a:	0f b6 12             	movzbl (%rdx),%edx
  40260d:	88 90 e0 02 00 00    	mov    %dl,0x2e0(%rax)
  402613:	48 8b 45 d8          	mov    -0x28(%rbp),%rax
  402617:	48 8b 80 88 00 00 00 	mov    0x88(%rax),%rax
  40261e:	48 8b 55 d0          	mov    -0x30(%rbp),%rdx
  402622:	0f b7 52 10          	movzwl 0x10(%rdx),%edx
  402626:	66 89 90 f0 02 00 00 	mov    %dx,0x2f0(%rax)
  40262d:	eb 3e                	jmp    40266d <dtls1_preprocess_fragment+0x1cb>
  40262f:	48 8b 45 d8          	mov    -0x28(%rbp),%rax
  402633:	48 8b 80 88 00 00 00 	mov    0x88(%rax),%rax
  40263a:	48 8b 80 e8 02 00 00 	mov    0x2e8(%rax),%rax
  402641:	48 3b 45 f8          	cmp    -0x8(%rbp),%rax
  402645:	74 26                	je     40266d <dtls1_preprocess_fragment+0x1cb>
  402647:	41 b8 0f 02 00 00    	mov    $0x20f,%r8d
  40264d:	b9 b0 4e 40 00       	mov    $0x404eb0,%ecx
  402652:	ba 98 00 00 00       	mov    $0x98,%edx
  402657:	be 20 01 00 00       	mov    $0x120,%esi
  40265c:	bf 14 00 00 00       	mov    $0x14,%edi
  402661:	e8 3a f0 ff ff       	callq  4016a0 <ERR_put_error@plt>
  402666:	b8 2f 00 00 00       	mov    $0x2f,%eax
  40266b:	eb 05                	jmp    402672 <dtls1_preprocess_fragment+0x1d0>
  40266d:	b8 00 00 00 00       	mov    $0x0,%eax
  402672:	c9                   	leaveq 
  402673:	c3                   	retq   

0000000000402674 <dtls1_retrieve_buffered_fragment>:
  402674:	55                   	push   %rbp
  402675:	48 89 e5             	mov    %rsp,%rbp
  402678:	48 83 ec 50          	sub    $0x50,%rsp
  40267c:	48 89 7d c8          	mov    %rdi,-0x38(%rbp)
  402680:	48 89 75 c0          	mov    %rsi,-0x40(%rbp)
  402684:	48 89 55 b8          	mov    %rdx,-0x48(%rbp)
  402688:	48 8b 45 b8          	mov    -0x48(%rbp),%rax
  40268c:	c7 00 00 00 00 00    	movl   $0x0,(%rax)
  402692:	48 8b 45 c8          	mov    -0x38(%rbp),%rax
  402696:	48 8b 80 88 00 00 00 	mov    0x88(%rax),%rax
  40269d:	48 8b 80 60 02 00 00 	mov    0x260(%rax),%rax
  4026a4:	48 89 c7             	mov    %rax,%rdi
  4026a7:	e8 f4 ee ff ff       	callq  4015a0 <pqueue_peek@plt>
  4026ac:	48 89 45 f8          	mov    %rax,-0x8(%rbp)
  4026b0:	48 83 7d f8 00       	cmpq   $0x0,-0x8(%rbp)
  4026b5:	75 0a                	jne    4026c1 <dtls1_retrieve_buffered_fragment+0x4d>
  4026b7:	b8 00 00 00 00       	mov    $0x0,%eax
  4026bc:	e9 2f 01 00 00       	jmpq   4027f0 <dtls1_retrieve_buffered_fragment+0x17c>
  4026c1:	48 8b 45 f8          	mov    -0x8(%rbp),%rax
  4026c5:	48 8b 40 08          	mov    0x8(%rax),%rax
  4026c9:	48 89 45 f0          	mov    %rax,-0x10(%rbp)
  4026cd:	48 8b 45 f0          	mov    -0x10(%rbp),%rax
  4026d1:	48 8b 40 60          	mov    0x60(%rax),%rax
  4026d5:	48 85 c0             	test   %rax,%rax
  4026d8:	74 0a                	je     4026e4 <dtls1_retrieve_buffered_fragment+0x70>
  4026da:	b8 00 00 00 00       	mov    $0x0,%eax
  4026df:	e9 0c 01 00 00       	jmpq   4027f0 <dtls1_retrieve_buffered_fragment+0x17c>
  4026e4:	48 8b 45 c8          	mov    -0x38(%rbp),%rax
  4026e8:	48 8b 80 88 00 00 00 	mov    0x88(%rax),%rax
  4026ef:	0f b7 90 34 02 00 00 	movzwl 0x234(%rax),%edx
  4026f6:	48 8b 45 f0          	mov    -0x10(%rbp),%rax
  4026fa:	0f b7 40 10          	movzwl 0x10(%rax),%eax
  4026fe:	66 39 c2             	cmp    %ax,%dx
  402701:	0f 85 e4 00 00 00    	jne    4027eb <dtls1_retrieve_buffered_fragment+0x177>
  402707:	48 8b 45 f0          	mov    -0x10(%rbp),%rax
  40270b:	48 8b 40 20          	mov    0x20(%rax),%rax
  40270f:	48 89 45 e8          	mov    %rax,-0x18(%rbp)
  402713:	48 8b 45 c8          	mov    -0x38(%rbp),%rax
  402717:	48 8b 80 88 00 00 00 	mov    0x88(%rax),%rax
  40271e:	48 8b 80 60 02 00 00 	mov    0x260(%rax),%rax
  402725:	48 89 c7             	mov    %rax,%rdi
  402728:	e8 13 f0 ff ff       	callq  401740 <pqueue_pop@plt>
  40272d:	48 8b 45 c0          	mov    -0x40(%rbp),%rax
  402731:	89 c2                	mov    %eax,%edx
  402733:	48 8b 4d f0          	mov    -0x10(%rbp),%rcx
  402737:	48 8b 45 c8          	mov    -0x38(%rbp),%rax
  40273b:	48 89 ce             	mov    %rcx,%rsi
  40273e:	48 89 c7             	mov    %rax,%rdi
  402741:	e8 5c fd ff ff       	callq  4024a2 <dtls1_preprocess_fragment>
  402746:	89 45 e4             	mov    %eax,-0x1c(%rbp)
  402749:	83 7d e4 00          	cmpl   $0x0,-0x1c(%rbp)
  40274d:	75 3e                	jne    40278d <dtls1_retrieve_buffered_fragment+0x119>
  40274f:	48 8b 45 c8          	mov    -0x38(%rbp),%rax
  402753:	48 8b 40 50          	mov    0x50(%rax),%rax
  402757:	48 8b 40 08          	mov    0x8(%rax),%rax
  40275b:	48 83 c0 0c          	add    $0xc,%rax
  40275f:	48 89 45 d8          	mov    %rax,-0x28(%rbp)
  402763:	48 8b 45 f0          	mov    -0x10(%rbp),%rax
  402767:	48 8b 50 20          	mov    0x20(%rax),%rdx
  40276b:	48 8b 45 f0          	mov    -0x10(%rbp),%rax
  40276f:	48 8b 40 58          	mov    0x58(%rax),%rax
  402773:	48 8b 4d f0          	mov    -0x10(%rbp),%rcx
  402777:	48 8b 71 18          	mov    0x18(%rcx),%rsi
  40277b:	48 8b 4d d8          	mov    -0x28(%rbp),%rcx
  40277f:	48 01 f1             	add    %rsi,%rcx
  402782:	48 89 c6             	mov    %rax,%rsi
  402785:	48 89 cf             	mov    %rcx,%rdi
  402788:	e8 93 ee ff ff       	callq  401620 <memcpy@plt>
  40278d:	48 8b 45 f0          	mov    -0x10(%rbp),%rax
  402791:	48 89 c7             	mov    %rax,%rdi
  402794:	e8 86 f2 ff ff       	callq  401a1f <dtls1_hm_fragment_free>
  402799:	48 8b 45 f8          	mov    -0x8(%rbp),%rax
  40279d:	48 89 c7             	mov    %rax,%rdi
  4027a0:	e8 bb ee ff ff       	callq  401660 <pitem_free@plt>
  4027a5:	83 7d e4 00          	cmpl   $0x0,-0x1c(%rbp)
  4027a9:	75 10                	jne    4027bb <dtls1_retrieve_buffered_fragment+0x147>
  4027ab:	48 8b 45 b8          	mov    -0x48(%rbp),%rax
  4027af:	c7 00 01 00 00 00    	movl   $0x1,(%rax)
  4027b5:	48 8b 45 e8          	mov    -0x18(%rbp),%rax
  4027b9:	eb 35                	jmp    4027f0 <dtls1_retrieve_buffered_fragment+0x17c>
  4027bb:	8b 55 e4             	mov    -0x1c(%rbp),%edx
  4027be:	48 8b 45 c8          	mov    -0x38(%rbp),%rax
  4027c2:	be 02 00 00 00       	mov    $0x2,%esi
  4027c7:	48 89 c7             	mov    %rax,%rdi
  4027ca:	e8 c1 ee ff ff       	callq  401690 <ssl3_send_alert@plt>
  4027cf:	48 8b 45 c8          	mov    -0x38(%rbp),%rax
  4027d3:	c7 40 60 00 00 00 00 	movl   $0x0,0x60(%rax)
  4027da:	48 8b 45 b8          	mov    -0x48(%rbp),%rax
  4027de:	c7 00 00 00 00 00    	movl   $0x0,(%rax)
  4027e4:	b8 ff ff ff ff       	mov    $0xffffffff,%eax
  4027e9:	eb 05                	jmp    4027f0 <dtls1_retrieve_buffered_fragment+0x17c>
  4027eb:	b8 00 00 00 00       	mov    $0x0,%eax
  4027f0:	c9                   	leaveq 
  4027f1:	c3                   	retq   

00000000004027f2 <dtls1_reassemble_fragment>:
  4027f2:	55                   	push   %rbp
  4027f3:	48 89 e5             	mov    %rsp,%rbp
  4027f6:	48 81 ec 70 01 00 00 	sub    $0x170,%rsp
  4027fd:	48 89 bd a8 fe ff ff 	mov    %rdi,-0x158(%rbp)
  402804:	48 89 b5 a0 fe ff ff 	mov    %rsi,-0x160(%rbp)
  40280b:	48 89 95 98 fe ff ff 	mov    %rdx,-0x168(%rbp)
  402812:	48 c7 45 f8 00 00 00 	movq   $0x0,-0x8(%rbp)
  402819:	00 
  40281a:	48 c7 45 f0 00 00 00 	movq   $0x0,-0x10(%rbp)
  402821:	00 
  402822:	c7 45 ec ff ff ff ff 	movl   $0xffffffff,-0x14(%rbp)
  402829:	48 8b 85 a0 fe ff ff 	mov    -0x160(%rbp),%rax
  402830:	48 8b 40 20          	mov    0x20(%rax),%rax
  402834:	48 89 45 e0          	mov    %rax,-0x20(%rbp)
  402838:	48 8b 85 a0 fe ff ff 	mov    -0x160(%rbp),%rax
  40283f:	48 8b 50 18          	mov    0x18(%rax),%rdx
  402843:	48 8b 45 e0          	mov    -0x20(%rbp),%rax
  402847:	48 01 c2             	add    %rax,%rdx
  40284a:	48 8b 85 a0 fe ff ff 	mov    -0x160(%rbp),%rax
  402851:	48 8b 40 08          	mov    0x8(%rax),%rax
  402855:	48 39 c2             	cmp    %rax,%rdx
  402858:	76 05                	jbe    40285f <dtls1_reassemble_fragment+0x6d>
  40285a:	e9 04 05 00 00       	jmpq   402d63 <dtls1_reassemble_fragment+0x571>
  40285f:	48 8b 85 a8 fe ff ff 	mov    -0x158(%rbp),%rax
  402866:	48 8b 80 c0 01 00 00 	mov    0x1c0(%rax),%rax
  40286d:	48 3d 4c 45 00 00    	cmp    $0x454c,%rax
  402873:	7e 14                	jle    402889 <dtls1_reassemble_fragment+0x97>
  402875:	48 8b 85 a8 fe ff ff 	mov    -0x158(%rbp),%rax
  40287c:	48 8b 80 c0 01 00 00 	mov    0x1c0(%rax),%rax
  402883:	48 89 45 d8          	mov    %rax,-0x28(%rbp)
  402887:	eb 08                	jmp    402891 <dtls1_reassemble_fragment+0x9f>
  402889:	48 c7 45 d8 4c 45 00 	movq   $0x454c,-0x28(%rbp)
  402890:	00 
  402891:	48 8b 85 a0 fe ff ff 	mov    -0x160(%rbp),%rax
  402898:	48 8b 50 18          	mov    0x18(%rax),%rdx
  40289c:	48 8b 45 e0          	mov    -0x20(%rbp),%rax
  4028a0:	48 01 d0             	add    %rdx,%rax
  4028a3:	48 3b 45 d8          	cmp    -0x28(%rbp),%rax
  4028a7:	76 05                	jbe    4028ae <dtls1_reassemble_fragment+0xbc>
  4028a9:	e9 b5 04 00 00       	jmpq   402d63 <dtls1_reassemble_fragment+0x571>
  4028ae:	48 8d 45 b0          	lea    -0x50(%rbp),%rax
  4028b2:	ba 08 00 00 00       	mov    $0x8,%edx
  4028b7:	be 00 00 00 00       	mov    $0x0,%esi
  4028bc:	48 89 c7             	mov    %rax,%rdi
  4028bf:	e8 cc ec ff ff       	callq  401590 <memset@plt>
  4028c4:	48 8b 85 a0 fe ff ff 	mov    -0x160(%rbp),%rax
  4028cb:	0f b7 40 10          	movzwl 0x10(%rax),%eax
  4028cf:	66 c1 e8 08          	shr    $0x8,%ax
  4028d3:	88 45 b6             	mov    %al,-0x4a(%rbp)
  4028d6:	48 8b 85 a0 fe ff ff 	mov    -0x160(%rbp),%rax
  4028dd:	0f b7 40 10          	movzwl 0x10(%rax),%eax
  4028e1:	88 45 b7             	mov    %al,-0x49(%rbp)
  4028e4:	48 8b 85 a8 fe ff ff 	mov    -0x158(%rbp),%rax
  4028eb:	48 8b 80 88 00 00 00 	mov    0x88(%rax),%rax
  4028f2:	48 8b 80 60 02 00 00 	mov    0x260(%rax),%rax
  4028f9:	48 8d 55 b0          	lea    -0x50(%rbp),%rdx
  4028fd:	48 89 d6             	mov    %rdx,%rsi
  402900:	48 89 c7             	mov    %rax,%rdi
  402903:	e8 28 ee ff ff       	callq  401730 <pqueue_find@plt>
  402908:	48 89 45 f0          	mov    %rax,-0x10(%rbp)
  40290c:	48 83 7d f0 00       	cmpq   $0x0,-0x10(%rbp)
  402911:	75 61                	jne    402974 <dtls1_reassemble_fragment+0x182>
  402913:	48 8b 85 a0 fe ff ff 	mov    -0x160(%rbp),%rax
  40291a:	48 8b 40 08          	mov    0x8(%rax),%rax
  40291e:	be 01 00 00 00       	mov    $0x1,%esi
  402923:	48 89 c7             	mov    %rax,%rdi
  402926:	e8 d5 ef ff ff       	callq  401900 <dtls1_hm_fragment_new>
  40292b:	48 89 45 f8          	mov    %rax,-0x8(%rbp)
  40292f:	48 83 7d f8 00       	cmpq   $0x0,-0x8(%rbp)
  402934:	75 05                	jne    40293b <dtls1_reassemble_fragment+0x149>
  402936:	e9 28 04 00 00       	jmpq   402d63 <dtls1_reassemble_fragment+0x571>
  40293b:	48 8b 45 f8          	mov    -0x8(%rbp),%rax
  40293f:	48 8b 8d a0 fe ff ff 	mov    -0x160(%rbp),%rcx
  402946:	ba 58 00 00 00       	mov    $0x58,%edx
  40294b:	48 89 ce             	mov    %rcx,%rsi
  40294e:	48 89 c7             	mov    %rax,%rdi
  402951:	e8 ca ec ff ff       	callq  401620 <memcpy@plt>
  402956:	48 8b 45 f8          	mov    -0x8(%rbp),%rax
  40295a:	48 8b 50 08          	mov    0x8(%rax),%rdx
  40295e:	48 8b 45 f8          	mov    -0x8(%rbp),%rax
  402962:	48 89 50 20          	mov    %rdx,0x20(%rax)
  402966:	48 8b 45 f8          	mov    -0x8(%rbp),%rax
  40296a:	48 c7 40 18 00 00 00 	movq   $0x0,0x18(%rax)
  402971:	00 
  402972:	eb 0c                	jmp    402980 <dtls1_reassemble_fragment+0x18e>
  402974:	48 8b 45 f0          	mov    -0x10(%rbp),%rax
  402978:	48 8b 40 08          	mov    0x8(%rax),%rax
  40297c:	48 89 45 f8          	mov    %rax,-0x8(%rbp)
  402980:	48 8b 45 f8          	mov    -0x8(%rbp),%rax
  402984:	48 8b 40 60          	mov    0x60(%rax),%rax
  402988:	48 85 c0             	test   %rax,%rax
  40298b:	75 67                	jne    4029f4 <dtls1_reassemble_fragment+0x202>
  40298d:	eb 54                	jmp    4029e3 <dtls1_reassemble_fragment+0x1f1>
  40298f:	48 8b 85 a8 fe ff ff 	mov    -0x158(%rbp),%rax
  402996:	48 8b 40 08          	mov    0x8(%rax),%rax
  40299a:	48 8b 40 68          	mov    0x68(%rax),%rax
  40299e:	ba 00 01 00 00       	mov    $0x100,%edx
  4029a3:	48 81 7d e0 00 01 00 	cmpq   $0x100,-0x20(%rbp)
  4029aa:	00 
  4029ab:	48 0f 46 55 e0       	cmovbe -0x20(%rbp),%rdx
  4029b0:	89 d1                	mov    %edx,%ecx
  4029b2:	48 8d 95 b0 fe ff ff 	lea    -0x150(%rbp),%rdx
  4029b9:	48 8b bd a8 fe ff ff 	mov    -0x158(%rbp),%rdi
  4029c0:	41 b8 00 00 00 00    	mov    $0x0,%r8d
  4029c6:	be 16 00 00 00       	mov    $0x16,%esi
  4029cb:	ff d0                	callq  *%rax
  4029cd:	89 45 ec             	mov    %eax,-0x14(%rbp)
  4029d0:	83 7d ec 00          	cmpl   $0x0,-0x14(%rbp)
  4029d4:	0f 8e 89 03 00 00    	jle    402d63 <dtls1_reassemble_fragment+0x571>
  4029da:	8b 45 ec             	mov    -0x14(%rbp),%eax
  4029dd:	48 98                	cltq   
  4029df:	48 29 45 e0          	sub    %rax,-0x20(%rbp)
  4029e3:	48 83 7d e0 00       	cmpq   $0x0,-0x20(%rbp)
  4029e8:	75 a5                	jne    40298f <dtls1_reassemble_fragment+0x19d>
  4029ea:	b8 fd ff ff ff       	mov    $0xfffffffd,%eax
  4029ef:	e9 a5 03 00 00       	jmpq   402d99 <dtls1_reassemble_fragment+0x5a7>
  4029f4:	48 8b 85 a8 fe ff ff 	mov    -0x158(%rbp),%rax
  4029fb:	48 8b 40 08          	mov    0x8(%rax),%rax
  4029ff:	48 8b 40 68          	mov    0x68(%rax),%rax
  402a03:	48 8b 55 e0          	mov    -0x20(%rbp),%rdx
  402a07:	48 8b 4d f8          	mov    -0x8(%rbp),%rcx
  402a0b:	48 8b 71 58          	mov    0x58(%rcx),%rsi
  402a0f:	48 8b 8d a0 fe ff ff 	mov    -0x160(%rbp),%rcx
  402a16:	48 8b 49 18          	mov    0x18(%rcx),%rcx
  402a1a:	48 01 ce             	add    %rcx,%rsi
  402a1d:	48 8b bd a8 fe ff ff 	mov    -0x158(%rbp),%rdi
  402a24:	41 b8 00 00 00 00    	mov    $0x0,%r8d
  402a2a:	89 d1                	mov    %edx,%ecx
  402a2c:	48 89 f2             	mov    %rsi,%rdx
  402a2f:	be 16 00 00 00       	mov    $0x16,%esi
  402a34:	ff d0                	callq  *%rax
  402a36:	89 45 ec             	mov    %eax,-0x14(%rbp)
  402a39:	83 7d ec 00          	cmpl   $0x0,-0x14(%rbp)
  402a3d:	0f 8e 20 03 00 00    	jle    402d63 <dtls1_reassemble_fragment+0x571>
  402a43:	8b 45 ec             	mov    -0x14(%rbp),%eax
  402a46:	48 98                	cltq   
  402a48:	48 3b 45 e0          	cmp    -0x20(%rbp),%rax
  402a4c:	0f 85 11 03 00 00    	jne    402d63 <dtls1_reassemble_fragment+0x571>
  402a52:	48 8b 85 a0 fe ff ff 	mov    -0x160(%rbp),%rax
  402a59:	48 8b 50 18          	mov    0x18(%rax),%rdx
  402a5d:	48 8b 45 e0          	mov    -0x20(%rbp),%rax
  402a61:	48 01 d0             	add    %rdx,%rax
  402a64:	48 89 c2             	mov    %rax,%rdx
  402a67:	48 8b 85 a0 fe ff ff 	mov    -0x160(%rbp),%rax
  402a6e:	48 8b 40 18          	mov    0x18(%rax),%rax
  402a72:	48 29 c2             	sub    %rax,%rdx
  402a75:	48 89 d0             	mov    %rdx,%rax
  402a78:	48 83 f8 08          	cmp    $0x8,%rax
  402a7c:	7f 74                	jg     402af2 <dtls1_reassemble_fragment+0x300>
  402a7e:	48 8b 85 a0 fe ff ff 	mov    -0x160(%rbp),%rax
  402a85:	48 8b 40 18          	mov    0x18(%rax),%rax
  402a89:	48 89 45 d0          	mov    %rax,-0x30(%rbp)
  402a8d:	eb 46                	jmp    402ad5 <dtls1_reassemble_fragment+0x2e3>
  402a8f:	48 8b 45 f8          	mov    -0x8(%rbp),%rax
  402a93:	48 8b 50 60          	mov    0x60(%rax),%rdx
  402a97:	48 8b 45 d0          	mov    -0x30(%rbp),%rax
  402a9b:	48 c1 f8 03          	sar    $0x3,%rax
  402a9f:	48 01 c2             	add    %rax,%rdx
  402aa2:	48 8b 45 f8          	mov    -0x8(%rbp),%rax
  402aa6:	48 8b 48 60          	mov    0x60(%rax),%rcx
  402aaa:	48 8b 45 d0          	mov    -0x30(%rbp),%rax
  402aae:	48 c1 f8 03          	sar    $0x3,%rax
  402ab2:	48 01 c8             	add    %rcx,%rax
  402ab5:	0f b6 00             	movzbl (%rax),%eax
  402ab8:	89 c6                	mov    %eax,%esi
  402aba:	48 8b 45 d0          	mov    -0x30(%rbp),%rax
  402abe:	83 e0 07             	and    $0x7,%eax
  402ac1:	bf 01 00 00 00       	mov    $0x1,%edi
  402ac6:	89 c1                	mov    %eax,%ecx
  402ac8:	d3 e7                	shl    %cl,%edi
  402aca:	89 f8                	mov    %edi,%eax
  402acc:	09 f0                	or     %esi,%eax
  402ace:	88 02                	mov    %al,(%rdx)
  402ad0:	48 83 45 d0 01       	addq   $0x1,-0x30(%rbp)
  402ad5:	48 8b 85 a0 fe ff ff 	mov    -0x160(%rbp),%rax
  402adc:	48 8b 50 18          	mov    0x18(%rax),%rdx
  402ae0:	48 8b 45 e0          	mov    -0x20(%rbp),%rax
  402ae4:	48 01 d0             	add    %rdx,%rax
  402ae7:	48 3b 45 d0          	cmp    -0x30(%rbp),%rax
  402aeb:	7f a2                	jg     402a8f <dtls1_reassemble_fragment+0x29d>
  402aed:	e9 0d 01 00 00       	jmpq   402bff <dtls1_reassemble_fragment+0x40d>
  402af2:	48 8b 45 f8          	mov    -0x8(%rbp),%rax
  402af6:	48 8b 50 60          	mov    0x60(%rax),%rdx
  402afa:	48 8b 85 a0 fe ff ff 	mov    -0x160(%rbp),%rax
  402b01:	48 8b 40 18          	mov    0x18(%rax),%rax
  402b05:	48 c1 f8 03          	sar    $0x3,%rax
  402b09:	48 01 c2             	add    %rax,%rdx
  402b0c:	48 8b 45 f8          	mov    -0x8(%rbp),%rax
  402b10:	48 8b 48 60          	mov    0x60(%rax),%rcx
  402b14:	48 8b 85 a0 fe ff ff 	mov    -0x160(%rbp),%rax
  402b1b:	48 8b 40 18          	mov    0x18(%rax),%rax
  402b1f:	48 c1 f8 03          	sar    $0x3,%rax
  402b23:	48 01 c8             	add    %rcx,%rax
  402b26:	0f b6 08             	movzbl (%rax),%ecx
  402b29:	48 8b 85 a0 fe ff ff 	mov    -0x160(%rbp),%rax
  402b30:	48 8b 40 18          	mov    0x18(%rax),%rax
  402b34:	83 e0 07             	and    $0x7,%eax
  402b37:	0f b6 80 94 61 60 00 	movzbl 0x606194(%rax),%eax
  402b3e:	09 c8                	or     %ecx,%eax
  402b40:	88 02                	mov    %al,(%rdx)
  402b42:	48 8b 85 a0 fe ff ff 	mov    -0x160(%rbp),%rax
  402b49:	48 8b 40 18          	mov    0x18(%rax),%rax
  402b4d:	48 c1 f8 03          	sar    $0x3,%rax
  402b51:	48 83 c0 01          	add    $0x1,%rax
  402b55:	48 89 45 c8          	mov    %rax,-0x38(%rbp)
  402b59:	eb 17                	jmp    402b72 <dtls1_reassemble_fragment+0x380>
  402b5b:	48 8b 45 f8          	mov    -0x8(%rbp),%rax
  402b5f:	48 8b 50 60          	mov    0x60(%rax),%rdx
  402b63:	48 8b 45 c8          	mov    -0x38(%rbp),%rax
  402b67:	48 01 d0             	add    %rdx,%rax
  402b6a:	c6 00 ff             	movb   $0xff,(%rax)
  402b6d:	48 83 45 c8 01       	addq   $0x1,-0x38(%rbp)
  402b72:	48 8b 85 a0 fe ff ff 	mov    -0x160(%rbp),%rax
  402b79:	48 8b 50 18          	mov    0x18(%rax),%rdx
  402b7d:	48 8b 45 e0          	mov    -0x20(%rbp),%rax
  402b81:	48 01 d0             	add    %rdx,%rax
  402b84:	48 83 e8 01          	sub    $0x1,%rax
  402b88:	48 c1 f8 03          	sar    $0x3,%rax
  402b8c:	48 3b 45 c8          	cmp    -0x38(%rbp),%rax
  402b90:	7f c9                	jg     402b5b <dtls1_reassemble_fragment+0x369>
  402b92:	48 8b 45 f8          	mov    -0x8(%rbp),%rax
  402b96:	48 8b 50 60          	mov    0x60(%rax),%rdx
  402b9a:	48 8b 85 a0 fe ff ff 	mov    -0x160(%rbp),%rax
  402ba1:	48 8b 48 18          	mov    0x18(%rax),%rcx
  402ba5:	48 8b 45 e0          	mov    -0x20(%rbp),%rax
  402ba9:	48 01 c8             	add    %rcx,%rax
  402bac:	48 83 e8 01          	sub    $0x1,%rax
  402bb0:	48 c1 f8 03          	sar    $0x3,%rax
  402bb4:	48 01 c2             	add    %rax,%rdx
  402bb7:	48 8b 45 f8          	mov    -0x8(%rbp),%rax
  402bbb:	48 8b 48 60          	mov    0x60(%rax),%rcx
  402bbf:	48 8b 85 a0 fe ff ff 	mov    -0x160(%rbp),%rax
  402bc6:	48 8b 70 18          	mov    0x18(%rax),%rsi
  402bca:	48 8b 45 e0          	mov    -0x20(%rbp),%rax
  402bce:	48 01 f0             	add    %rsi,%rax
  402bd1:	48 83 e8 01          	sub    $0x1,%rax
  402bd5:	48 c1 f8 03          	sar    $0x3,%rax
  402bd9:	48 01 c8             	add    %rcx,%rax
  402bdc:	0f b6 08             	movzbl (%rax),%ecx
  402bdf:	48 8b 85 a0 fe ff ff 	mov    -0x160(%rbp),%rax
  402be6:	48 8b 70 18          	mov    0x18(%rax),%rsi
  402bea:	48 8b 45 e0          	mov    -0x20(%rbp),%rax
  402bee:	48 01 f0             	add    %rsi,%rax
  402bf1:	83 e0 07             	and    $0x7,%eax
  402bf4:	0f b6 80 9c 61 60 00 	movzbl 0x60619c(%rax),%eax
  402bfb:	09 c8                	or     %ecx,%eax
  402bfd:	88 02                	mov    %al,(%rdx)
  402bff:	48 8b 85 a0 fe ff ff 	mov    -0x160(%rbp),%rax
  402c06:	48 8b 40 08          	mov    0x8(%rax),%rax
  402c0a:	48 85 c0             	test   %rax,%rax
  402c0d:	7f 14                	jg     402c23 <dtls1_reassemble_fragment+0x431>
  402c0f:	ba 7c 4f 40 00       	mov    $0x404f7c,%edx
  402c14:	be 94 02 00 00       	mov    $0x294,%esi
  402c19:	bf b0 4e 40 00       	mov    $0x404eb0,%edi
  402c1e:	e8 2d ea ff ff       	callq  401650 <OpenSSLDie@plt>
  402c23:	c7 45 e8 01 00 00 00 	movl   $0x1,-0x18(%rbp)
  402c2a:	48 8b 45 f8          	mov    -0x8(%rbp),%rax
  402c2e:	48 8b 50 60          	mov    0x60(%rax),%rdx
  402c32:	48 8b 85 a0 fe ff ff 	mov    -0x160(%rbp),%rax
  402c39:	48 8b 40 08          	mov    0x8(%rax),%rax
  402c3d:	48 83 e8 01          	sub    $0x1,%rax
  402c41:	48 c1 f8 03          	sar    $0x3,%rax
  402c45:	48 01 d0             	add    %rdx,%rax
  402c48:	0f b6 10             	movzbl (%rax),%edx
  402c4b:	48 8b 85 a0 fe ff ff 	mov    -0x160(%rbp),%rax
  402c52:	48 8b 40 08          	mov    0x8(%rax),%rax
  402c56:	83 e0 07             	and    $0x7,%eax
  402c59:	0f b6 80 9c 61 60 00 	movzbl 0x60619c(%rax),%eax
  402c60:	38 c2                	cmp    %al,%dl
  402c62:	74 07                	je     402c6b <dtls1_reassemble_fragment+0x479>
  402c64:	c7 45 e8 00 00 00 00 	movl   $0x0,-0x18(%rbp)
  402c6b:	83 7d e8 00          	cmpl   $0x0,-0x18(%rbp)
  402c6f:	74 48                	je     402cb9 <dtls1_reassemble_fragment+0x4c7>
  402c71:	48 8b 85 a0 fe ff ff 	mov    -0x160(%rbp),%rax
  402c78:	48 8b 40 08          	mov    0x8(%rax),%rax
  402c7c:	48 83 e8 01          	sub    $0x1,%rax
  402c80:	48 c1 f8 03          	sar    $0x3,%rax
  402c84:	48 83 e8 01          	sub    $0x1,%rax
  402c88:	48 89 45 c0          	mov    %rax,-0x40(%rbp)
  402c8c:	eb 24                	jmp    402cb2 <dtls1_reassemble_fragment+0x4c0>
  402c8e:	48 8b 45 f8          	mov    -0x8(%rbp),%rax
  402c92:	48 8b 50 60          	mov    0x60(%rax),%rdx
  402c96:	48 8b 45 c0          	mov    -0x40(%rbp),%rax
  402c9a:	48 01 d0             	add    %rdx,%rax
  402c9d:	0f b6 00             	movzbl (%rax),%eax
  402ca0:	3c ff                	cmp    $0xff,%al
  402ca2:	74 09                	je     402cad <dtls1_reassemble_fragment+0x4bb>
  402ca4:	c7 45 e8 00 00 00 00 	movl   $0x0,-0x18(%rbp)
  402cab:	eb 0c                	jmp    402cb9 <dtls1_reassemble_fragment+0x4c7>
  402cad:	48 83 6d c0 01       	subq   $0x1,-0x40(%rbp)
  402cb2:	48 83 7d c0 00       	cmpq   $0x0,-0x40(%rbp)
  402cb7:	79 d5                	jns    402c8e <dtls1_reassemble_fragment+0x49c>
  402cb9:	83 7d e8 00          	cmpl   $0x0,-0x18(%rbp)
  402cbd:	74 1c                	je     402cdb <dtls1_reassemble_fragment+0x4e9>
  402cbf:	48 8b 45 f8          	mov    -0x8(%rbp),%rax
  402cc3:	48 8b 40 60          	mov    0x60(%rax),%rax
  402cc7:	48 89 c7             	mov    %rax,%rdi
  402cca:	e8 f1 e9 ff ff       	callq  4016c0 <CRYPTO_free@plt>
  402ccf:	48 8b 45 f8          	mov    -0x8(%rbp),%rax
  402cd3:	48 c7 40 60 00 00 00 	movq   $0x0,0x60(%rax)
  402cda:	00 
  402cdb:	48 83 7d f0 00       	cmpq   $0x0,-0x10(%rbp)
  402ce0:	75 7a                	jne    402d5c <dtls1_reassemble_fragment+0x56a>
  402ce2:	48 8d 45 b0          	lea    -0x50(%rbp),%rax
  402ce6:	ba 08 00 00 00       	mov    $0x8,%edx
  402ceb:	be 00 00 00 00       	mov    $0x0,%esi
  402cf0:	48 89 c7             	mov    %rax,%rdi
  402cf3:	e8 98 e8 ff ff       	callq  401590 <memset@plt>
  402cf8:	48 8b 85 a0 fe ff ff 	mov    -0x160(%rbp),%rax
  402cff:	0f b7 40 10          	movzwl 0x10(%rax),%eax
  402d03:	66 c1 e8 08          	shr    $0x8,%ax
  402d07:	88 45 b6             	mov    %al,-0x4a(%rbp)
  402d0a:	48 8b 85 a0 fe ff ff 	mov    -0x160(%rbp),%rax
  402d11:	0f b7 40 10          	movzwl 0x10(%rax),%eax
  402d15:	88 45 b7             	mov    %al,-0x49(%rbp)
  402d18:	48 8b 55 f8          	mov    -0x8(%rbp),%rdx
  402d1c:	48 8d 45 b0          	lea    -0x50(%rbp),%rax
  402d20:	48 89 d6             	mov    %rdx,%rsi
  402d23:	48 89 c7             	mov    %rax,%rdi
  402d26:	e8 55 e9 ff ff       	callq  401680 <pitem_new@plt>
  402d2b:	48 89 45 f0          	mov    %rax,-0x10(%rbp)
  402d2f:	48 83 7d f0 00       	cmpq   $0x0,-0x10(%rbp)
  402d34:	75 02                	jne    402d38 <dtls1_reassemble_fragment+0x546>
  402d36:	eb 2b                	jmp    402d63 <dtls1_reassemble_fragment+0x571>
  402d38:	48 8b 85 a8 fe ff ff 	mov    -0x158(%rbp),%rax
  402d3f:	48 8b 80 88 00 00 00 	mov    0x88(%rax),%rax
  402d46:	48 8b 80 60 02 00 00 	mov    0x260(%rax),%rax
  402d4d:	48 8b 55 f0          	mov    -0x10(%rbp),%rdx
  402d51:	48 89 d6             	mov    %rdx,%rsi
  402d54:	48 89 c7             	mov    %rax,%rdi
  402d57:	e8 84 e9 ff ff       	callq  4016e0 <pqueue_insert@plt>
  402d5c:	b8 fd ff ff ff       	mov    $0xfffffffd,%eax
  402d61:	eb 36                	jmp    402d99 <dtls1_reassemble_fragment+0x5a7>
  402d63:	48 83 7d f8 00       	cmpq   $0x0,-0x8(%rbp)
  402d68:	74 0c                	je     402d76 <dtls1_reassemble_fragment+0x584>
  402d6a:	48 8b 45 f8          	mov    -0x8(%rbp),%rax
  402d6e:	48 89 c7             	mov    %rax,%rdi
  402d71:	e8 a9 ec ff ff       	callq  401a1f <dtls1_hm_fragment_free>
  402d76:	48 83 7d f0 00       	cmpq   $0x0,-0x10(%rbp)
  402d7b:	74 0c                	je     402d89 <dtls1_reassemble_fragment+0x597>
  402d7d:	48 8b 45 f0          	mov    -0x10(%rbp),%rax
  402d81:	48 89 c7             	mov    %rax,%rdi
  402d84:	e8 37 e9 ff ff       	callq  4016c0 <CRYPTO_free@plt>
  402d89:	48 8b 85 98 fe ff ff 	mov    -0x168(%rbp),%rax
  402d90:	c7 00 00 00 00 00    	movl   $0x0,(%rax)
  402d96:	8b 45 ec             	mov    -0x14(%rbp),%eax
  402d99:	c9                   	leaveq 
  402d9a:	c3                   	retq   

0000000000402d9b <dtls1_process_out_of_seq_message>:
  402d9b:	55                   	push   %rbp
  402d9c:	48 89 e5             	mov    %rsp,%rbp
  402d9f:	48 81 ec 50 01 00 00 	sub    $0x150,%rsp
  402da6:	48 89 bd c8 fe ff ff 	mov    %rdi,-0x138(%rbp)
  402dad:	48 89 b5 c0 fe ff ff 	mov    %rsi,-0x140(%rbp)
  402db4:	48 89 95 b8 fe ff ff 	mov    %rdx,-0x148(%rbp)
  402dbb:	c7 45 fc ff ff ff ff 	movl   $0xffffffff,-0x4(%rbp)
  402dc2:	48 c7 45 f0 00 00 00 	movq   $0x0,-0x10(%rbp)
  402dc9:	00 
  402dca:	48 c7 45 e8 00 00 00 	movq   $0x0,-0x18(%rbp)
  402dd1:	00 
  402dd2:	48 8b 85 c0 fe ff ff 	mov    -0x140(%rbp),%rax
  402dd9:	48 8b 40 20          	mov    0x20(%rax),%rax
  402ddd:	48 89 45 e0          	mov    %rax,-0x20(%rbp)
  402de1:	48 8b 85 c0 fe ff ff 	mov    -0x140(%rbp),%rax
  402de8:	48 8b 50 18          	mov    0x18(%rax),%rdx
  402dec:	48 8b 45 e0          	mov    -0x20(%rbp),%rax
  402df0:	48 01 c2             	add    %rax,%rdx
  402df3:	48 8b 85 c0 fe ff ff 	mov    -0x140(%rbp),%rax
  402dfa:	48 8b 40 08          	mov    0x8(%rax),%rax
  402dfe:	48 39 c2             	cmp    %rax,%rdx
  402e01:	76 05                	jbe    402e08 <dtls1_process_out_of_seq_message+0x6d>
  402e03:	e9 af 02 00 00       	jmpq   4030b7 <dtls1_process_out_of_seq_message+0x31c>
  402e08:	48 8d 45 d0          	lea    -0x30(%rbp),%rax
  402e0c:	ba 08 00 00 00       	mov    $0x8,%edx
  402e11:	be 00 00 00 00       	mov    $0x0,%esi
  402e16:	48 89 c7             	mov    %rax,%rdi
  402e19:	e8 72 e7 ff ff       	callq  401590 <memset@plt>
  402e1e:	48 8b 85 c0 fe ff ff 	mov    -0x140(%rbp),%rax
  402e25:	0f b7 40 10          	movzwl 0x10(%rax),%eax
  402e29:	66 c1 e8 08          	shr    $0x8,%ax
  402e2d:	88 45 d6             	mov    %al,-0x2a(%rbp)
  402e30:	48 8b 85 c0 fe ff ff 	mov    -0x140(%rbp),%rax
  402e37:	0f b7 40 10          	movzwl 0x10(%rax),%eax
  402e3b:	88 45 d7             	mov    %al,-0x29(%rbp)
  402e3e:	48 8b 85 c8 fe ff ff 	mov    -0x138(%rbp),%rax
  402e45:	48 8b 80 88 00 00 00 	mov    0x88(%rax),%rax
  402e4c:	48 8b 80 60 02 00 00 	mov    0x260(%rax),%rax
  402e53:	48 8d 55 d0          	lea    -0x30(%rbp),%rdx
  402e57:	48 89 d6             	mov    %rdx,%rsi
  402e5a:	48 89 c7             	mov    %rax,%rdi
  402e5d:	e8 ce e8 ff ff       	callq  401730 <pqueue_find@plt>
  402e62:	48 89 45 e8          	mov    %rax,-0x18(%rbp)
  402e66:	48 83 7d e8 00       	cmpq   $0x0,-0x18(%rbp)
  402e6b:	74 19                	je     402e86 <dtls1_process_out_of_seq_message+0xeb>
  402e6d:	48 8b 85 c0 fe ff ff 	mov    -0x140(%rbp),%rax
  402e74:	48 8b 40 08          	mov    0x8(%rax),%rax
  402e78:	48 3b 45 e0          	cmp    -0x20(%rbp),%rax
  402e7c:	76 08                	jbe    402e86 <dtls1_process_out_of_seq_message+0xeb>
  402e7e:	48 c7 45 e8 00 00 00 	movq   $0x0,-0x18(%rbp)
  402e85:	00 
  402e86:	48 8b 85 c0 fe ff ff 	mov    -0x140(%rbp),%rax
  402e8d:	0f b7 50 10          	movzwl 0x10(%rax),%edx
  402e91:	48 8b 85 c8 fe ff ff 	mov    -0x138(%rbp),%rax
  402e98:	48 8b 80 88 00 00 00 	mov    0x88(%rax),%rax
  402e9f:	0f b7 80 34 02 00 00 	movzwl 0x234(%rax),%eax
  402ea6:	66 39 c2             	cmp    %ax,%dx
  402ea9:	76 5c                	jbe    402f07 <dtls1_process_out_of_seq_message+0x16c>
  402eab:	48 8b 85 c0 fe ff ff 	mov    -0x140(%rbp),%rax
  402eb2:	0f b7 40 10          	movzwl 0x10(%rax),%eax
  402eb6:	0f b7 d0             	movzwl %ax,%edx
  402eb9:	48 8b 85 c8 fe ff ff 	mov    -0x138(%rbp),%rax
  402ec0:	48 8b 80 88 00 00 00 	mov    0x88(%rax),%rax
  402ec7:	0f b7 80 34 02 00 00 	movzwl 0x234(%rax),%eax
  402ece:	0f b7 c0             	movzwl %ax,%eax
  402ed1:	83 c0 0a             	add    $0xa,%eax
  402ed4:	39 c2                	cmp    %eax,%edx
  402ed6:	7f 2f                	jg     402f07 <dtls1_process_out_of_seq_message+0x16c>
  402ed8:	48 83 7d e8 00       	cmpq   $0x0,-0x18(%rbp)
  402edd:	75 28                	jne    402f07 <dtls1_process_out_of_seq_message+0x16c>
  402edf:	48 8b 85 c8 fe ff ff 	mov    -0x138(%rbp),%rax
  402ee6:	48 8b 80 88 00 00 00 	mov    0x88(%rax),%rax
  402eed:	0f b7 80 34 02 00 00 	movzwl 0x234(%rax),%eax
  402ef4:	66 85 c0             	test   %ax,%ax
  402ef7:	75 70                	jne    402f69 <dtls1_process_out_of_seq_message+0x1ce>
  402ef9:	48 8b 85 c0 fe ff ff 	mov    -0x140(%rbp),%rax
  402f00:	0f b6 00             	movzbl (%rax),%eax
  402f03:	3c 14                	cmp    $0x14,%al
  402f05:	75 62                	jne    402f69 <dtls1_process_out_of_seq_message+0x1ce>
  402f07:	eb 54                	jmp    402f5d <dtls1_process_out_of_seq_message+0x1c2>
  402f09:	48 8b 85 c8 fe ff ff 	mov    -0x138(%rbp),%rax
  402f10:	48 8b 40 08          	mov    0x8(%rax),%rax
  402f14:	48 8b 40 68          	mov    0x68(%rax),%rax
  402f18:	ba 00 01 00 00       	mov    $0x100,%edx
  402f1d:	48 81 7d e0 00 01 00 	cmpq   $0x100,-0x20(%rbp)
  402f24:	00 
  402f25:	48 0f 46 55 e0       	cmovbe -0x20(%rbp),%rdx
  402f2a:	89 d1                	mov    %edx,%ecx
  402f2c:	48 8d 95 d0 fe ff ff 	lea    -0x130(%rbp),%rdx
  402f33:	48 8b bd c8 fe ff ff 	mov    -0x138(%rbp),%rdi
  402f3a:	41 b8 00 00 00 00    	mov    $0x0,%r8d
  402f40:	be 16 00 00 00       	mov    $0x16,%esi
  402f45:	ff d0                	callq  *%rax
  402f47:	89 45 fc             	mov    %eax,-0x4(%rbp)
  402f4a:	83 7d fc 00          	cmpl   $0x0,-0x4(%rbp)
  402f4e:	0f 8e 63 01 00 00    	jle    4030b7 <dtls1_process_out_of_seq_message+0x31c>
  402f54:	8b 45 fc             	mov    -0x4(%rbp),%eax
  402f57:	48 98                	cltq   
  402f59:	48 29 45 e0          	sub    %rax,-0x20(%rbp)
  402f5d:	48 83 7d e0 00       	cmpq   $0x0,-0x20(%rbp)
  402f62:	75 a5                	jne    402f09 <dtls1_process_out_of_seq_message+0x16e>
  402f64:	e9 47 01 00 00       	jmpq   4030b0 <dtls1_process_out_of_seq_message+0x315>
  402f69:	48 83 7d e0 00       	cmpq   $0x0,-0x20(%rbp)
  402f6e:	74 36                	je     402fa6 <dtls1_process_out_of_seq_message+0x20b>
  402f70:	48 8b 85 c0 fe ff ff 	mov    -0x140(%rbp),%rax
  402f77:	48 8b 40 08          	mov    0x8(%rax),%rax
  402f7b:	48 3b 45 e0          	cmp    -0x20(%rbp),%rax
  402f7f:	76 25                	jbe    402fa6 <dtls1_process_out_of_seq_message+0x20b>
  402f81:	48 8b 95 b8 fe ff ff 	mov    -0x148(%rbp),%rdx
  402f88:	48 8b 8d c0 fe ff ff 	mov    -0x140(%rbp),%rcx
  402f8f:	48 8b 85 c8 fe ff ff 	mov    -0x138(%rbp),%rax
  402f96:	48 89 ce             	mov    %rcx,%rsi
  402f99:	48 89 c7             	mov    %rax,%rdi
  402f9c:	e8 51 f8 ff ff       	callq  4027f2 <dtls1_reassemble_fragment>
  402fa1:	e9 47 01 00 00       	jmpq   4030ed <dtls1_process_out_of_seq_message+0x352>
  402fa6:	48 8b 45 e0          	mov    -0x20(%rbp),%rax
  402faa:	be 00 00 00 00       	mov    $0x0,%esi
  402faf:	48 89 c7             	mov    %rax,%rdi
  402fb2:	e8 49 e9 ff ff       	callq  401900 <dtls1_hm_fragment_new>
  402fb7:	48 89 45 f0          	mov    %rax,-0x10(%rbp)
  402fbb:	48 83 7d f0 00       	cmpq   $0x0,-0x10(%rbp)
  402fc0:	75 05                	jne    402fc7 <dtls1_process_out_of_seq_message+0x22c>
  402fc2:	e9 f0 00 00 00       	jmpq   4030b7 <dtls1_process_out_of_seq_message+0x31c>
  402fc7:	48 8b 45 f0          	mov    -0x10(%rbp),%rax
  402fcb:	48 8b 8d c0 fe ff ff 	mov    -0x140(%rbp),%rcx
  402fd2:	ba 58 00 00 00       	mov    $0x58,%edx
  402fd7:	48 89 ce             	mov    %rcx,%rsi
  402fda:	48 89 c7             	mov    %rax,%rdi
  402fdd:	e8 3e e6 ff ff       	callq  401620 <memcpy@plt>
  402fe2:	48 83 7d e0 00       	cmpq   $0x0,-0x20(%rbp)
  402fe7:	74 4d                	je     403036 <dtls1_process_out_of_seq_message+0x29b>
  402fe9:	48 8b 85 c8 fe ff ff 	mov    -0x138(%rbp),%rax
  402ff0:	48 8b 40 08          	mov    0x8(%rax),%rax
  402ff4:	48 8b 40 68          	mov    0x68(%rax),%rax
  402ff8:	48 8b 55 e0          	mov    -0x20(%rbp),%rdx
  402ffc:	89 d1                	mov    %edx,%ecx
  402ffe:	48 8b 55 f0          	mov    -0x10(%rbp),%rdx
  403002:	48 8b 52 58          	mov    0x58(%rdx),%rdx
  403006:	48 8b bd c8 fe ff ff 	mov    -0x138(%rbp),%rdi
  40300d:	41 b8 00 00 00 00    	mov    $0x0,%r8d
  403013:	be 16 00 00 00       	mov    $0x16,%esi
  403018:	ff d0                	callq  *%rax
  40301a:	89 45 fc             	mov    %eax,-0x4(%rbp)
  40301d:	83 7d fc 00          	cmpl   $0x0,-0x4(%rbp)
  403021:	0f 8e 90 00 00 00    	jle    4030b7 <dtls1_process_out_of_seq_message+0x31c>
  403027:	8b 45 fc             	mov    -0x4(%rbp),%eax
  40302a:	48 98                	cltq   
  40302c:	48 3b 45 e0          	cmp    -0x20(%rbp),%rax
  403030:	0f 85 81 00 00 00    	jne    4030b7 <dtls1_process_out_of_seq_message+0x31c>
  403036:	48 8d 45 d0          	lea    -0x30(%rbp),%rax
  40303a:	ba 08 00 00 00       	mov    $0x8,%edx
  40303f:	be 00 00 00 00       	mov    $0x0,%esi
  403044:	48 89 c7             	mov    %rax,%rdi
  403047:	e8 44 e5 ff ff       	callq  401590 <memset@plt>
  40304c:	48 8b 85 c0 fe ff ff 	mov    -0x140(%rbp),%rax
  403053:	0f b7 40 10          	movzwl 0x10(%rax),%eax
  403057:	66 c1 e8 08          	shr    $0x8,%ax
  40305b:	88 45 d6             	mov    %al,-0x2a(%rbp)
  40305e:	48 8b 85 c0 fe ff ff 	mov    -0x140(%rbp),%rax
  403065:	0f b7 40 10          	movzwl 0x10(%rax),%eax
  403069:	88 45 d7             	mov    %al,-0x29(%rbp)
  40306c:	48 8b 55 f0          	mov    -0x10(%rbp),%rdx
  403070:	48 8d 45 d0          	lea    -0x30(%rbp),%rax
  403074:	48 89 d6             	mov    %rdx,%rsi
  403077:	48 89 c7             	mov    %rax,%rdi
  40307a:	e8 01 e6 ff ff       	callq  401680 <pitem_new@plt>
  40307f:	48 89 45 e8          	mov    %rax,-0x18(%rbp)
  403083:	48 83 7d e8 00       	cmpq   $0x0,-0x18(%rbp)
  403088:	75 02                	jne    40308c <dtls1_process_out_of_seq_message+0x2f1>
  40308a:	eb 2b                	jmp    4030b7 <dtls1_process_out_of_seq_message+0x31c>
  40308c:	48 8b 85 c8 fe ff ff 	mov    -0x138(%rbp),%rax
  403093:	48 8b 80 88 00 00 00 	mov    0x88(%rax),%rax
  40309a:	48 8b 80 60 02 00 00 	mov    0x260(%rax),%rax
  4030a1:	48 8b 55 e8          	mov    -0x18(%rbp),%rdx
  4030a5:	48 89 d6             	mov    %rdx,%rsi
  4030a8:	48 89 c7             	mov    %rax,%rdi
  4030ab:	e8 30 e6 ff ff       	callq  4016e0 <pqueue_insert@plt>
  4030b0:	b8 fd ff ff ff       	mov    $0xfffffffd,%eax
  4030b5:	eb 36                	jmp    4030ed <dtls1_process_out_of_seq_message+0x352>
  4030b7:	48 83 7d f0 00       	cmpq   $0x0,-0x10(%rbp)
  4030bc:	74 0c                	je     4030ca <dtls1_process_out_of_seq_message+0x32f>
  4030be:	48 8b 45 f0          	mov    -0x10(%rbp),%rax
  4030c2:	48 89 c7             	mov    %rax,%rdi
  4030c5:	e8 55 e9 ff ff       	callq  401a1f <dtls1_hm_fragment_free>
  4030ca:	48 83 7d e8 00       	cmpq   $0x0,-0x18(%rbp)
  4030cf:	74 0c                	je     4030dd <dtls1_process_out_of_seq_message+0x342>
  4030d1:	48 8b 45 e8          	mov    -0x18(%rbp),%rax
  4030d5:	48 89 c7             	mov    %rax,%rdi
  4030d8:	e8 e3 e5 ff ff       	callq  4016c0 <CRYPTO_free@plt>
  4030dd:	48 8b 85 b8 fe ff ff 	mov    -0x148(%rbp),%rax
  4030e4:	c7 00 00 00 00 00    	movl   $0x0,(%rax)
  4030ea:	8b 45 fc             	mov    -0x4(%rbp),%eax
  4030ed:	c9                   	leaveq 
  4030ee:	c3                   	retq   

00000000004030ef <dtls1_get_message_fragment>:
  4030ef:	55                   	push   %rbp
  4030f0:	48 89 e5             	mov    %rsp,%rbp
  4030f3:	48 81 ec d0 00 00 00 	sub    $0xd0,%rsp
  4030fa:	48 89 bd 58 ff ff ff 	mov    %rdi,-0xa8(%rbp)
  403101:	89 b5 54 ff ff ff    	mov    %esi,-0xac(%rbp)
  403107:	89 95 50 ff ff ff    	mov    %edx,-0xb0(%rbp)
  40310d:	48 89 8d 48 ff ff ff 	mov    %rcx,-0xb8(%rbp)
  403114:	4c 89 85 40 ff ff ff 	mov    %r8,-0xc0(%rbp)
  40311b:	48 8b 95 40 ff ff ff 	mov    -0xc0(%rbp),%rdx
  403122:	48 8b 8d 48 ff ff ff 	mov    -0xb8(%rbp),%rcx
  403129:	48 8b 85 58 ff ff ff 	mov    -0xa8(%rbp),%rax
  403130:	48 89 ce             	mov    %rcx,%rsi
  403133:	48 89 c7             	mov    %rax,%rdi
  403136:	e8 39 f5 ff ff       	callq  402674 <dtls1_retrieve_buffered_fragment>
  40313b:	48 98                	cltq   
  40313d:	48 89 45 f0          	mov    %rax,-0x10(%rbp)
  403141:	48 83 7d f0 00       	cmpq   $0x0,-0x10(%rbp)
  403146:	75 0d                	jne    403155 <dtls1_get_message_fragment+0x66>
  403148:	48 8b 85 40 ff ff ff 	mov    -0xc0(%rbp),%rax
  40314f:	8b 00                	mov    (%rax),%eax
  403151:	85 c0                	test   %eax,%eax
  403153:	74 26                	je     40317b <dtls1_get_message_fragment+0x8c>
  403155:	48 8b 85 40 ff ff ff 	mov    -0xc0(%rbp),%rax
  40315c:	8b 00                	mov    (%rax),%eax
  40315e:	85 c0                	test   %eax,%eax
  403160:	74 10                	je     403172 <dtls1_get_message_fragment+0x83>
  403162:	48 8b 45 f0          	mov    -0x10(%rbp),%rax
  403166:	89 c2                	mov    %eax,%edx
  403168:	48 8b 85 58 ff ff ff 	mov    -0xa8(%rbp),%rax
  40316f:	89 50 60             	mov    %edx,0x60(%rax)
  403172:	48 8b 45 f0          	mov    -0x10(%rbp),%rax
  403176:	e9 e6 03 00 00       	jmpq   403561 <dtls1_get_message_fragment+0x472>
  40317b:	48 8b 85 58 ff ff ff 	mov    -0xa8(%rbp),%rax
  403182:	48 8b 40 08          	mov    0x8(%rax),%rax
  403186:	48 8b 40 68          	mov    0x68(%rax),%rax
  40318a:	48 8d 55 c0          	lea    -0x40(%rbp),%rdx
  40318e:	48 8b bd 58 ff ff ff 	mov    -0xa8(%rbp),%rdi
  403195:	41 b8 00 00 00 00    	mov    $0x0,%r8d
  40319b:	b9 0c 00 00 00       	mov    $0xc,%ecx
  4031a0:	be 16 00 00 00       	mov    $0x16,%esi
  4031a5:	ff d0                	callq  *%rax
  4031a7:	89 45 fc             	mov    %eax,-0x4(%rbp)
  4031aa:	83 7d fc 00          	cmpl   $0x0,-0x4(%rbp)
  4031ae:	7f 25                	jg     4031d5 <dtls1_get_message_fragment+0xe6>
  4031b0:	48 8b 85 58 ff ff ff 	mov    -0xa8(%rbp),%rax
  4031b7:	c7 40 28 03 00 00 00 	movl   $0x3,0x28(%rax)
  4031be:	48 8b 85 40 ff ff ff 	mov    -0xc0(%rbp),%rax
  4031c5:	c7 00 00 00 00 00    	movl   $0x0,(%rax)
  4031cb:	8b 45 fc             	mov    -0x4(%rbp),%eax
  4031ce:	48 98                	cltq   
  4031d0:	e9 8c 03 00 00       	jmpq   403561 <dtls1_get_message_fragment+0x472>
  4031d5:	83 7d fc 0c          	cmpl   $0xc,-0x4(%rbp)
  4031d9:	74 2b                	je     403206 <dtls1_get_message_fragment+0x117>
  4031db:	c7 45 f8 0a 00 00 00 	movl   $0xa,-0x8(%rbp)
  4031e2:	41 b8 27 03 00 00    	mov    $0x327,%r8d
  4031e8:	b9 b0 4e 40 00       	mov    $0x404eb0,%ecx
  4031ed:	ba f4 00 00 00       	mov    $0xf4,%edx
  4031f2:	be fd 00 00 00       	mov    $0xfd,%esi
  4031f7:	bf 14 00 00 00       	mov    $0x14,%edi
  4031fc:	e8 9f e4 ff ff       	callq  4016a0 <ERR_put_error@plt>
  403201:	e9 22 03 00 00       	jmpq   403528 <dtls1_get_message_fragment+0x439>
  403206:	48 8d 95 60 ff ff ff 	lea    -0xa0(%rbp),%rdx
  40320d:	48 8d 45 c0          	lea    -0x40(%rbp),%rax
  403211:	48 89 d6             	mov    %rdx,%rsi
  403214:	48 89 c7             	mov    %rax,%rdi
  403217:	e8 7c 15 00 00       	callq  404798 <dtls1_get_message_header>
  40321c:	0f b7 95 70 ff ff ff 	movzwl -0x90(%rbp),%edx
  403223:	48 8b 85 58 ff ff ff 	mov    -0xa8(%rbp),%rax
  40322a:	48 8b 80 88 00 00 00 	mov    0x88(%rax),%rax
  403231:	0f b7 80 34 02 00 00 	movzwl 0x234(%rax),%eax
  403238:	66 39 c2             	cmp    %ax,%dx
  40323b:	74 4c                	je     403289 <dtls1_get_message_fragment+0x19a>
  40323d:	48 8b 85 58 ff ff ff 	mov    -0xa8(%rbp),%rax
  403244:	48 8b 80 88 00 00 00 	mov    0x88(%rax),%rax
  40324b:	8b 80 78 03 00 00    	mov    0x378(%rax),%eax
  403251:	85 c0                	test   %eax,%eax
  403253:	74 0d                	je     403262 <dtls1_get_message_fragment+0x173>
  403255:	0f b7 85 70 ff ff ff 	movzwl -0x90(%rbp),%eax
  40325c:	66 83 f8 01          	cmp    $0x1,%ax
  403260:	74 27                	je     403289 <dtls1_get_message_fragment+0x19a>
  403262:	48 8b 95 40 ff ff ff 	mov    -0xc0(%rbp),%rdx
  403269:	48 8d 8d 60 ff ff ff 	lea    -0xa0(%rbp),%rcx
  403270:	48 8b 85 58 ff ff ff 	mov    -0xa8(%rbp),%rax
  403277:	48 89 ce             	mov    %rcx,%rsi
  40327a:	48 89 c7             	mov    %rax,%rdi
  40327d:	e8 19 fb ff ff       	callq  402d9b <dtls1_process_out_of_seq_message>
  403282:	48 98                	cltq   
  403284:	e9 d8 02 00 00       	jmpq   403561 <dtls1_get_message_fragment+0x472>
  403289:	48 8b 85 68 ff ff ff 	mov    -0x98(%rbp),%rax
  403290:	48 89 45 e8          	mov    %rax,-0x18(%rbp)
  403294:	48 8b 85 78 ff ff ff 	mov    -0x88(%rbp),%rax
  40329b:	48 89 45 e0          	mov    %rax,-0x20(%rbp)
  40329f:	48 8b 45 80          	mov    -0x80(%rbp),%rax
  4032a3:	48 89 45 f0          	mov    %rax,-0x10(%rbp)
  4032a7:	48 83 7d f0 00       	cmpq   $0x0,-0x10(%rbp)
  4032ac:	74 31                	je     4032df <dtls1_get_message_fragment+0x1f0>
  4032ae:	48 8b 45 f0          	mov    -0x10(%rbp),%rax
  4032b2:	48 3b 45 e8          	cmp    -0x18(%rbp),%rax
  4032b6:	73 27                	jae    4032df <dtls1_get_message_fragment+0x1f0>
  4032b8:	48 8b 95 40 ff ff ff 	mov    -0xc0(%rbp),%rdx
  4032bf:	48 8d 8d 60 ff ff ff 	lea    -0xa0(%rbp),%rcx
  4032c6:	48 8b 85 58 ff ff ff 	mov    -0xa8(%rbp),%rax
  4032cd:	48 89 ce             	mov    %rcx,%rsi
  4032d0:	48 89 c7             	mov    %rax,%rdi
  4032d3:	e8 1a f5 ff ff       	callq  4027f2 <dtls1_reassemble_fragment>
  4032d8:	48 98                	cltq   
  4032da:	e9 82 02 00 00       	jmpq   403561 <dtls1_get_message_fragment+0x472>
  4032df:	48 8b 85 58 ff ff ff 	mov    -0xa8(%rbp),%rax
  4032e6:	8b 40 38             	mov    0x38(%rax),%eax
  4032e9:	85 c0                	test   %eax,%eax
  4032eb:	0f 85 17 01 00 00    	jne    403408 <dtls1_get_message_fragment+0x319>
  4032f1:	48 8b 85 58 ff ff ff 	mov    -0xa8(%rbp),%rax
  4032f8:	48 8b 80 88 00 00 00 	mov    0x88(%rax),%rax
  4032ff:	48 8b 80 f8 02 00 00 	mov    0x2f8(%rax),%rax
  403306:	48 85 c0             	test   %rax,%rax
  403309:	0f 85 f9 00 00 00    	jne    403408 <dtls1_get_message_fragment+0x319>
  40330f:	0f b6 45 c0          	movzbl -0x40(%rbp),%eax
  403313:	84 c0                	test   %al,%al
  403315:	0f 85 ed 00 00 00    	jne    403408 <dtls1_get_message_fragment+0x319>
  40331b:	0f b6 45 c1          	movzbl -0x3f(%rbp),%eax
  40331f:	84 c0                	test   %al,%al
  403321:	0f 85 b6 00 00 00    	jne    4033dd <dtls1_get_message_fragment+0x2ee>
  403327:	0f b6 45 c2          	movzbl -0x3e(%rbp),%eax
  40332b:	84 c0                	test   %al,%al
  40332d:	0f 85 aa 00 00 00    	jne    4033dd <dtls1_get_message_fragment+0x2ee>
  403333:	0f b6 45 c3          	movzbl -0x3d(%rbp),%eax
  403337:	84 c0                	test   %al,%al
  403339:	0f 85 9e 00 00 00    	jne    4033dd <dtls1_get_message_fragment+0x2ee>
  40333f:	48 8b 85 58 ff ff ff 	mov    -0xa8(%rbp),%rax
  403346:	48 8b 80 98 00 00 00 	mov    0x98(%rax),%rax
  40334d:	48 85 c0             	test   %rax,%rax
  403350:	74 4c                	je     40339e <dtls1_get_message_fragment+0x2af>
  403352:	48 8b 85 58 ff ff ff 	mov    -0xa8(%rbp),%rax
  403359:	48 8b 80 98 00 00 00 	mov    0x98(%rax),%rax
  403360:	48 8b 95 58 ff ff ff 	mov    -0xa8(%rbp),%rdx
  403367:	48 8b 8a a0 00 00 00 	mov    0xa0(%rdx),%rcx
  40336e:	48 8b 95 58 ff ff ff 	mov    -0xa8(%rbp),%rdx
  403375:	8b 32                	mov    (%rdx),%esi
  403377:	48 8b bd 58 ff ff ff 	mov    -0xa8(%rbp),%rdi
  40337e:	48 8d 55 c0          	lea    -0x40(%rbp),%rdx
  403382:	48 89 0c 24          	mov    %rcx,(%rsp)
  403386:	49 89 f9             	mov    %rdi,%r9
  403389:	41 b8 0c 00 00 00    	mov    $0xc,%r8d
  40338f:	48 89 d1             	mov    %rdx,%rcx
  403392:	ba 16 00 00 00       	mov    $0x16,%edx
  403397:	bf 00 00 00 00       	mov    $0x0,%edi
  40339c:	ff d0                	callq  *%rax
  40339e:	48 8b 85 58 ff ff ff 	mov    -0xa8(%rbp),%rax
  4033a5:	c7 40 60 00 00 00 00 	movl   $0x0,0x60(%rax)
  4033ac:	48 8b bd 40 ff ff ff 	mov    -0xc0(%rbp),%rdi
  4033b3:	48 8b 8d 48 ff ff ff 	mov    -0xb8(%rbp),%rcx
  4033ba:	8b 95 50 ff ff ff    	mov    -0xb0(%rbp),%edx
  4033c0:	8b b5 54 ff ff ff    	mov    -0xac(%rbp),%esi
  4033c6:	48 8b 85 58 ff ff ff 	mov    -0xa8(%rbp),%rax
  4033cd:	49 89 f8             	mov    %rdi,%r8
  4033d0:	48 89 c7             	mov    %rax,%rdi
  4033d3:	e8 17 fd ff ff       	callq  4030ef <dtls1_get_message_fragment>
  4033d8:	e9 84 01 00 00       	jmpq   403561 <dtls1_get_message_fragment+0x472>
  4033dd:	c7 45 f8 0a 00 00 00 	movl   $0xa,-0x8(%rbp)
  4033e4:	41 b8 53 03 00 00    	mov    $0x353,%r8d
  4033ea:	b9 b0 4e 40 00       	mov    $0x404eb0,%ecx
  4033ef:	ba f4 00 00 00       	mov    $0xf4,%edx
  4033f4:	be fd 00 00 00       	mov    $0xfd,%esi
  4033f9:	bf 14 00 00 00       	mov    $0x14,%edi
  4033fe:	e8 9d e2 ff ff       	callq  4016a0 <ERR_put_error@plt>
  403403:	e9 20 01 00 00       	jmpq   403528 <dtls1_get_message_fragment+0x439>
  403408:	48 8b 85 48 ff ff ff 	mov    -0xb8(%rbp),%rax
  40340f:	89 c2                	mov    %eax,%edx
  403411:	48 8d 8d 60 ff ff ff 	lea    -0xa0(%rbp),%rcx
  403418:	48 8b 85 58 ff ff ff 	mov    -0xa8(%rbp),%rax
  40341f:	48 89 ce             	mov    %rcx,%rsi
  403422:	48 89 c7             	mov    %rax,%rdi
  403425:	e8 78 f0 ff ff       	callq  4024a2 <dtls1_preprocess_fragment>
  40342a:	89 45 f8             	mov    %eax,-0x8(%rbp)
  40342d:	83 7d f8 00          	cmpl   $0x0,-0x8(%rbp)
  403431:	74 05                	je     403438 <dtls1_get_message_fragment+0x349>
  403433:	e9 f0 00 00 00       	jmpq   403528 <dtls1_get_message_fragment+0x439>
  403438:	48 8b 85 58 ff ff ff 	mov    -0xa8(%rbp),%rax
  40343f:	8b 95 50 ff ff ff    	mov    -0xb0(%rbp),%edx
  403445:	89 50 48             	mov    %edx,0x48(%rax)
  403448:	48 83 7d f0 00       	cmpq   $0x0,-0x10(%rbp)
  40344d:	74 7e                	je     4034cd <dtls1_get_message_fragment+0x3de>
  40344f:	48 8b 85 58 ff ff ff 	mov    -0xa8(%rbp),%rax
  403456:	48 8b 40 50          	mov    0x50(%rax),%rax
  40345a:	48 8b 40 08          	mov    0x8(%rax),%rax
  40345e:	48 83 c0 0c          	add    $0xc,%rax
  403462:	48 89 45 d8          	mov    %rax,-0x28(%rbp)
  403466:	48 8b 85 58 ff ff ff 	mov    -0xa8(%rbp),%rax
  40346d:	48 8b 40 08          	mov    0x8(%rax),%rax
  403471:	48 8b 40 68          	mov    0x68(%rax),%rax
  403475:	48 8b 55 f0          	mov    -0x10(%rbp),%rdx
  403479:	48 8b 4d e0          	mov    -0x20(%rbp),%rcx
  40347d:	48 8b 75 d8          	mov    -0x28(%rbp),%rsi
  403481:	48 01 ce             	add    %rcx,%rsi
  403484:	48 8b bd 58 ff ff ff 	mov    -0xa8(%rbp),%rdi
  40348b:	41 b8 00 00 00 00    	mov    $0x0,%r8d
  403491:	89 d1                	mov    %edx,%ecx
  403493:	48 89 f2             	mov    %rsi,%rdx
  403496:	be 16 00 00 00       	mov    $0x16,%esi
  40349b:	ff d0                	callq  *%rax
  40349d:	89 45 fc             	mov    %eax,-0x4(%rbp)
  4034a0:	83 7d fc 00          	cmpl   $0x0,-0x4(%rbp)
  4034a4:	7f 25                	jg     4034cb <dtls1_get_message_fragment+0x3dc>
  4034a6:	48 8b 85 58 ff ff ff 	mov    -0xa8(%rbp),%rax
  4034ad:	c7 40 28 03 00 00 00 	movl   $0x3,0x28(%rax)
  4034b4:	48 8b 85 40 ff ff ff 	mov    -0xc0(%rbp),%rax
  4034bb:	c7 00 00 00 00 00    	movl   $0x0,(%rax)
  4034c1:	8b 45 fc             	mov    -0x4(%rbp),%eax
  4034c4:	48 98                	cltq   
  4034c6:	e9 96 00 00 00       	jmpq   403561 <dtls1_get_message_fragment+0x472>
  4034cb:	eb 07                	jmp    4034d4 <dtls1_get_message_fragment+0x3e5>
  4034cd:	c7 45 fc 00 00 00 00 	movl   $0x0,-0x4(%rbp)
  4034d4:	48 8b 45 f0          	mov    -0x10(%rbp),%rax
  4034d8:	3b 45 fc             	cmp    -0x4(%rbp),%eax
  4034db:	74 28                	je     403505 <dtls1_get_message_fragment+0x416>
  4034dd:	c7 45 f8 2f 00 00 00 	movl   $0x2f,-0x8(%rbp)
  4034e4:	41 b8 74 03 00 00    	mov    $0x374,%r8d
  4034ea:	b9 b0 4e 40 00       	mov    $0x404eb0,%ecx
  4034ef:	ba 2f 00 00 00       	mov    $0x2f,%edx
  4034f4:	be fd 00 00 00       	mov    $0xfd,%esi
  4034f9:	bf 14 00 00 00       	mov    $0x14,%edi
  4034fe:	e8 9d e1 ff ff       	callq  4016a0 <ERR_put_error@plt>
  403503:	eb 23                	jmp    403528 <dtls1_get_message_fragment+0x439>
  403505:	48 8b 85 40 ff ff ff 	mov    -0xc0(%rbp),%rax
  40350c:	c7 00 01 00 00 00    	movl   $0x1,(%rax)
  403512:	48 8b 45 f0          	mov    -0x10(%rbp),%rax
  403516:	89 c2                	mov    %eax,%edx
  403518:	48 8b 85 58 ff ff ff 	mov    -0xa8(%rbp),%rax
  40351f:	89 50 60             	mov    %edx,0x60(%rax)
  403522:	48 8b 45 f0          	mov    -0x10(%rbp),%rax
  403526:	eb 39                	jmp    403561 <dtls1_get_message_fragment+0x472>
  403528:	8b 55 f8             	mov    -0x8(%rbp),%edx
  40352b:	48 8b 85 58 ff ff ff 	mov    -0xa8(%rbp),%rax
  403532:	be 02 00 00 00       	mov    $0x2,%esi
  403537:	48 89 c7             	mov    %rax,%rdi
  40353a:	e8 51 e1 ff ff       	callq  401690 <ssl3_send_alert@plt>
  40353f:	48 8b 85 58 ff ff ff 	mov    -0xa8(%rbp),%rax
  403546:	c7 40 60 00 00 00 00 	movl   $0x0,0x60(%rax)
  40354d:	48 8b 85 40 ff ff ff 	mov    -0xc0(%rbp),%rax
  403554:	c7 00 00 00 00 00    	movl   $0x0,(%rax)
  40355a:	48 c7 c0 ff ff ff ff 	mov    $0xffffffffffffffff,%rax
  403561:	c9                   	leaveq 
  403562:	c3                   	retq   

0000000000403563 <dtls1_send_finished>:
  403563:	55                   	push   %rbp
  403564:	48 89 e5             	mov    %rsp,%rbp
  403567:	48 83 ec 40          	sub    $0x40,%rsp
  40356b:	48 89 7d d8          	mov    %rdi,-0x28(%rbp)
  40356f:	89 75 d4             	mov    %esi,-0x2c(%rbp)
  403572:	89 55 d0             	mov    %edx,-0x30(%rbp)
  403575:	48 89 4d c8          	mov    %rcx,-0x38(%rbp)
  403579:	44 89 45 c4          	mov    %r8d,-0x3c(%rbp)
  40357d:	48 8b 45 d8          	mov    -0x28(%rbp),%rax
  403581:	8b 40 48             	mov    0x48(%rax),%eax
  403584:	3b 45 d4             	cmp    -0x2c(%rbp),%eax
  403587:	0f 85 d3 01 00 00    	jne    403760 <dtls1_send_finished+0x1fd>
  40358d:	48 8b 45 d8          	mov    -0x28(%rbp),%rax
  403591:	48 8b 40 50          	mov    0x50(%rax),%rax
  403595:	48 8b 40 08          	mov    0x8(%rax),%rax
  403599:	48 89 45 f8          	mov    %rax,-0x8(%rbp)
  40359d:	48 8b 45 f8          	mov    -0x8(%rbp),%rax
  4035a1:	48 83 c0 0c          	add    $0xc,%rax
  4035a5:	48 89 45 f0          	mov    %rax,-0x10(%rbp)
  4035a9:	48 8b 45 d8          	mov    -0x28(%rbp),%rax
  4035ad:	48 8b 40 08          	mov    0x8(%rax),%rax
  4035b1:	48 8b 80 c8 00 00 00 	mov    0xc8(%rax),%rax
  4035b8:	48 8b 40 28          	mov    0x28(%rax),%rax
  4035bc:	48 8b 55 d8          	mov    -0x28(%rbp),%rdx
  4035c0:	48 8b 92 80 00 00 00 	mov    0x80(%rdx),%rdx
  4035c7:	48 8d 8a 90 02 00 00 	lea    0x290(%rdx),%rcx
  4035ce:	8b 55 c4             	mov    -0x3c(%rbp),%edx
  4035d1:	48 8b 75 c8          	mov    -0x38(%rbp),%rsi
  4035d5:	48 8b 7d d8          	mov    -0x28(%rbp),%rdi
  4035d9:	ff d0                	callq  *%rax
  4035db:	89 45 ec             	mov    %eax,-0x14(%rbp)
  4035de:	48 8b 45 d8          	mov    -0x28(%rbp),%rax
  4035e2:	48 8b 80 80 00 00 00 	mov    0x80(%rax),%rax
  4035e9:	8b 55 ec             	mov    -0x14(%rbp),%edx
  4035ec:	89 90 10 03 00 00    	mov    %edx,0x310(%rax)
  4035f2:	8b 45 ec             	mov    -0x14(%rbp),%eax
  4035f5:	48 63 d0             	movslq %eax,%rdx
  4035f8:	48 8b 45 d8          	mov    -0x28(%rbp),%rax
  4035fc:	48 8b 80 80 00 00 00 	mov    0x80(%rax),%rax
  403603:	48 8d 88 90 02 00 00 	lea    0x290(%rax),%rcx
  40360a:	48 8b 45 f0          	mov    -0x10(%rbp),%rax
  40360e:	48 89 ce             	mov    %rcx,%rsi
  403611:	48 89 c7             	mov    %rax,%rdi
  403614:	e8 07 e0 ff ff       	callq  401620 <memcpy@plt>
  403619:	8b 45 ec             	mov    -0x14(%rbp),%eax
  40361c:	48 98                	cltq   
  40361e:	48 01 45 f0          	add    %rax,-0x10(%rbp)
  403622:	8b 45 ec             	mov    -0x14(%rbp),%eax
  403625:	48 98                	cltq   
  403627:	48 89 45 e0          	mov    %rax,-0x20(%rbp)
  40362b:	48 8b 45 d8          	mov    -0x28(%rbp),%rax
  40362f:	8b 40 04             	mov    0x4(%rax),%eax
  403632:	3d 00 10 00 00       	cmp    $0x1000,%eax
  403637:	75 64                	jne    40369d <dtls1_send_finished+0x13a>
  403639:	83 7d ec 40          	cmpl   $0x40,-0x14(%rbp)
  40363d:	7e 14                	jle    403653 <dtls1_send_finished+0xf0>
  40363f:	ba 99 4f 40 00       	mov    $0x404f99,%edx
  403644:	be a0 03 00 00       	mov    $0x3a0,%esi
  403649:	bf b0 4e 40 00       	mov    $0x404eb0,%edi
  40364e:	e8 fd df ff ff       	callq  401650 <OpenSSLDie@plt>
  403653:	8b 45 ec             	mov    -0x14(%rbp),%eax
  403656:	48 98                	cltq   
  403658:	48 8b 55 d8          	mov    -0x28(%rbp),%rdx
  40365c:	48 8b 92 80 00 00 00 	mov    0x80(%rdx),%rdx
  403663:	48 8d b2 90 02 00 00 	lea    0x290(%rdx),%rsi
  40366a:	48 8b 55 d8          	mov    -0x28(%rbp),%rdx
  40366e:	48 8b 92 80 00 00 00 	mov    0x80(%rdx),%rdx
  403675:	48 8d 8a 20 04 00 00 	lea    0x420(%rdx),%rcx
  40367c:	48 89 c2             	mov    %rax,%rdx
  40367f:	48 89 cf             	mov    %rcx,%rdi
  403682:	e8 99 df ff ff       	callq  401620 <memcpy@plt>
  403687:	48 8b 45 d8          	mov    -0x28(%rbp),%rax
  40368b:	48 8b 80 80 00 00 00 	mov    0x80(%rax),%rax
  403692:	8b 55 ec             	mov    -0x14(%rbp),%edx
  403695:	88 90 60 04 00 00    	mov    %dl,0x460(%rax)
  40369b:	eb 62                	jmp    4036ff <dtls1_send_finished+0x19c>
  40369d:	83 7d ec 40          	cmpl   $0x40,-0x14(%rbp)
  4036a1:	7e 14                	jle    4036b7 <dtls1_send_finished+0x154>
  4036a3:	ba 99 4f 40 00       	mov    $0x404f99,%edx
  4036a8:	be a7 03 00 00       	mov    $0x3a7,%esi
  4036ad:	bf b0 4e 40 00       	mov    $0x404eb0,%edi
  4036b2:	e8 99 df ff ff       	callq  401650 <OpenSSLDie@plt>
  4036b7:	8b 45 ec             	mov    -0x14(%rbp),%eax
  4036ba:	48 98                	cltq   
  4036bc:	48 8b 55 d8          	mov    -0x28(%rbp),%rdx
  4036c0:	48 8b 92 80 00 00 00 	mov    0x80(%rdx),%rdx
  4036c7:	48 8d b2 90 02 00 00 	lea    0x290(%rdx),%rsi
  4036ce:	48 8b 55 d8          	mov    -0x28(%rbp),%rdx
  4036d2:	48 8b 92 80 00 00 00 	mov    0x80(%rdx),%rdx
  4036d9:	48 8d 8a 61 04 00 00 	lea    0x461(%rdx),%rcx
  4036e0:	48 89 c2             	mov    %rax,%rdx
  4036e3:	48 89 cf             	mov    %rcx,%rdi
  4036e6:	e8 35 df ff ff       	callq  401620 <memcpy@plt>
  4036eb:	48 8b 45 d8          	mov    -0x28(%rbp),%rax
  4036ef:	48 8b 80 80 00 00 00 	mov    0x80(%rax),%rax
  4036f6:	8b 55 ec             	mov    -0x14(%rbp),%edx
  4036f9:	88 90 a1 04 00 00    	mov    %dl,0x4a1(%rax)
  4036ff:	48 8b 4d e0          	mov    -0x20(%rbp),%rcx
  403703:	48 8b 55 e0          	mov    -0x20(%rbp),%rdx
  403707:	48 8b 75 f8          	mov    -0x8(%rbp),%rsi
  40370b:	48 8b 45 d8          	mov    -0x28(%rbp),%rax
  40370f:	49 89 c9             	mov    %rcx,%r9
  403712:	41 b8 00 00 00 00    	mov    $0x0,%r8d
  403718:	48 89 d1             	mov    %rdx,%rcx
  40371b:	ba 14 00 00 00       	mov    $0x14,%edx
  403720:	48 89 c7             	mov    %rax,%rdi
  403723:	e8 85 0d 00 00       	callq  4044ad <dtls1_set_message_header>
  403728:	48 89 45 f8          	mov    %rax,-0x8(%rbp)
  40372c:	48 8b 45 e0          	mov    -0x20(%rbp),%rax
  403730:	8d 50 0c             	lea    0xc(%rax),%edx
  403733:	48 8b 45 d8          	mov    -0x28(%rbp),%rax
  403737:	89 50 60             	mov    %edx,0x60(%rax)
  40373a:	48 8b 45 d8          	mov    -0x28(%rbp),%rax
  40373e:	c7 40 64 00 00 00 00 	movl   $0x0,0x64(%rax)
  403745:	48 8b 45 d8          	mov    -0x28(%rbp),%rax
  403749:	be 00 00 00 00       	mov    $0x0,%esi
  40374e:	48 89 c7             	mov    %rax,%rdi
  403751:	e8 9b 06 00 00       	callq  403df1 <dtls1_buffer_message>
  403756:	48 8b 45 d8          	mov    -0x28(%rbp),%rax
  40375a:	8b 55 d0             	mov    -0x30(%rbp),%edx
  40375d:	89 50 48             	mov    %edx,0x48(%rax)
  403760:	48 8b 45 d8          	mov    -0x28(%rbp),%rax
  403764:	be 16 00 00 00       	mov    $0x16,%esi
  403769:	48 89 c7             	mov    %rax,%rdi
  40376c:	e8 2d e3 ff ff       	callq  401a9e <dtls1_do_write>
  403771:	c9                   	leaveq 
  403772:	c3                   	retq   

0000000000403773 <dtls1_send_change_cipher_spec>:
  403773:	55                   	push   %rbp
  403774:	48 89 e5             	mov    %rsp,%rbp
  403777:	48 83 ec 20          	sub    $0x20,%rsp
  40377b:	48 89 7d e8          	mov    %rdi,-0x18(%rbp)
  40377f:	89 75 e4             	mov    %esi,-0x1c(%rbp)
  403782:	89 55 e0             	mov    %edx,-0x20(%rbp)
  403785:	48 8b 45 e8          	mov    -0x18(%rbp),%rax
  403789:	8b 40 48             	mov    0x48(%rax),%eax
  40378c:	3b 45 e4             	cmp    -0x1c(%rbp),%eax
  40378f:	0f 85 26 01 00 00    	jne    4038bb <dtls1_send_change_cipher_spec+0x148>
  403795:	48 8b 45 e8          	mov    -0x18(%rbp),%rax
  403799:	48 8b 40 50          	mov    0x50(%rax),%rax
  40379d:	48 8b 40 08          	mov    0x8(%rax),%rax
  4037a1:	48 89 45 f8          	mov    %rax,-0x8(%rbp)
  4037a5:	48 8b 45 f8          	mov    -0x8(%rbp),%rax
  4037a9:	48 8d 50 01          	lea    0x1(%rax),%rdx
  4037ad:	48 89 55 f8          	mov    %rdx,-0x8(%rbp)
  4037b1:	c6 00 01             	movb   $0x1,(%rax)
  4037b4:	48 8b 45 e8          	mov    -0x18(%rbp),%rax
  4037b8:	48 8b 80 88 00 00 00 	mov    0x88(%rax),%rax
  4037bf:	48 8b 55 e8          	mov    -0x18(%rbp),%rdx
  4037c3:	48 8b 92 88 00 00 00 	mov    0x88(%rdx),%rdx
  4037ca:	0f b7 92 32 02 00 00 	movzwl 0x232(%rdx),%edx
  4037d1:	66 89 90 30 02 00 00 	mov    %dx,0x230(%rax)
  4037d8:	48 8b 45 e8          	mov    -0x18(%rbp),%rax
  4037dc:	c7 40 60 01 00 00 00 	movl   $0x1,0x60(%rax)
  4037e3:	48 8b 45 e8          	mov    -0x18(%rbp),%rax
  4037e7:	8b 00                	mov    (%rax),%eax
  4037e9:	3d 00 01 00 00       	cmp    $0x100,%eax
  4037ee:	75 6c                	jne    40385c <dtls1_send_change_cipher_spec+0xe9>
  4037f0:	48 8b 45 e8          	mov    -0x18(%rbp),%rax
  4037f4:	48 8b 80 88 00 00 00 	mov    0x88(%rax),%rax
  4037fb:	0f b7 90 32 02 00 00 	movzwl 0x232(%rax),%edx
  403802:	83 c2 01             	add    $0x1,%edx
  403805:	66 89 90 32 02 00 00 	mov    %dx,0x232(%rax)
  40380c:	48 8b 45 e8          	mov    -0x18(%rbp),%rax
  403810:	48 8b 80 88 00 00 00 	mov    0x88(%rax),%rax
  403817:	0f b7 80 30 02 00 00 	movzwl 0x230(%rax),%eax
  40381e:	66 c1 e8 08          	shr    $0x8,%ax
  403822:	89 c2                	mov    %eax,%edx
  403824:	48 8b 45 f8          	mov    -0x8(%rbp),%rax
  403828:	88 10                	mov    %dl,(%rax)
  40382a:	48 8b 45 f8          	mov    -0x8(%rbp),%rax
  40382e:	48 8d 50 01          	lea    0x1(%rax),%rdx
  403832:	48 8b 45 e8          	mov    -0x18(%rbp),%rax
  403836:	48 8b 80 88 00 00 00 	mov    0x88(%rax),%rax
  40383d:	0f b7 80 30 02 00 00 	movzwl 0x230(%rax),%eax
  403844:	88 02                	mov    %al,(%rdx)
  403846:	48 83 45 f8 02       	addq   $0x2,-0x8(%rbp)
  40384b:	48 8b 45 e8          	mov    -0x18(%rbp),%rax
  40384f:	8b 40 60             	mov    0x60(%rax),%eax
  403852:	8d 50 02             	lea    0x2(%rax),%edx
  403855:	48 8b 45 e8          	mov    -0x18(%rbp),%rax
  403859:	89 50 60             	mov    %edx,0x60(%rax)
  40385c:	48 8b 45 e8          	mov    -0x18(%rbp),%rax
  403860:	c7 40 64 00 00 00 00 	movl   $0x0,0x64(%rax)
  403867:	48 8b 45 e8          	mov    -0x18(%rbp),%rax
  40386b:	48 8b 80 88 00 00 00 	mov    0x88(%rax),%rax
  403872:	0f b7 80 30 02 00 00 	movzwl 0x230(%rax),%eax
  403879:	0f b7 d0             	movzwl %ax,%edx
  40387c:	48 8b 45 e8          	mov    -0x18(%rbp),%rax
  403880:	41 b9 00 00 00 00    	mov    $0x0,%r9d
  403886:	41 b8 00 00 00 00    	mov    $0x0,%r8d
  40388c:	89 d1                	mov    %edx,%ecx
  40388e:	ba 00 00 00 00       	mov    $0x0,%edx
  403893:	be 01 00 00 00       	mov    $0x1,%esi
  403898:	48 89 c7             	mov    %rax,%rdi
  40389b:	e8 cc 0c 00 00       	callq  40456c <dtls1_set_message_header_int>
  4038a0:	48 8b 45 e8          	mov    -0x18(%rbp),%rax
  4038a4:	be 01 00 00 00       	mov    $0x1,%esi
  4038a9:	48 89 c7             	mov    %rax,%rdi
  4038ac:	e8 40 05 00 00       	callq  403df1 <dtls1_buffer_message>
  4038b1:	48 8b 45 e8          	mov    -0x18(%rbp),%rax
  4038b5:	8b 55 e0             	mov    -0x20(%rbp),%edx
  4038b8:	89 50 48             	mov    %edx,0x48(%rax)
  4038bb:	48 8b 45 e8          	mov    -0x18(%rbp),%rax
  4038bf:	be 14 00 00 00       	mov    $0x14,%esi
  4038c4:	48 89 c7             	mov    %rax,%rdi
  4038c7:	e8 d2 e1 ff ff       	callq  401a9e <dtls1_do_write>
  4038cc:	c9                   	leaveq 
  4038cd:	c3                   	retq   

00000000004038ce <dtls1_add_cert_to_buf>:
  4038ce:	55                   	push   %rbp
  4038cf:	48 89 e5             	mov    %rsp,%rbp
  4038d2:	48 83 ec 30          	sub    $0x30,%rsp
  4038d6:	48 89 7d e8          	mov    %rdi,-0x18(%rbp)
  4038da:	48 89 75 e0          	mov    %rsi,-0x20(%rbp)
  4038de:	48 89 55 d8          	mov    %rdx,-0x28(%rbp)
  4038e2:	48 8b 45 d8          	mov    -0x28(%rbp),%rax
  4038e6:	be 00 00 00 00       	mov    $0x0,%esi
  4038eb:	48 89 c7             	mov    %rax,%rdi
  4038ee:	e8 8d de ff ff       	callq  401780 <i2d_X509@plt>
  4038f3:	89 45 fc             	mov    %eax,-0x4(%rbp)
  4038f6:	48 8b 45 e0          	mov    -0x20(%rbp),%rax
  4038fa:	48 8b 00             	mov    (%rax),%rax
  4038fd:	89 c2                	mov    %eax,%edx
  4038ff:	8b 45 fc             	mov    -0x4(%rbp),%eax
  403902:	01 d0                	add    %edx,%eax
  403904:	83 c0 03             	add    $0x3,%eax
  403907:	48 63 d0             	movslq %eax,%rdx
  40390a:	48 8b 45 e8          	mov    -0x18(%rbp),%rax
  40390e:	48 89 d6             	mov    %rdx,%rsi
  403911:	48 89 c7             	mov    %rax,%rdi
  403914:	e8 27 dd ff ff       	callq  401640 <BUF_MEM_grow_clean@plt>
  403919:	85 c0                	test   %eax,%eax
  40391b:	75 26                	jne    403943 <dtls1_add_cert_to_buf+0x75>
  40391d:	41 b8 f2 03 00 00    	mov    $0x3f2,%r8d
  403923:	b9 b0 4e 40 00       	mov    $0x404eb0,%ecx
  403928:	ba 07 00 00 00       	mov    $0x7,%edx
  40392d:	be 27 01 00 00       	mov    $0x127,%esi
  403932:	bf 14 00 00 00       	mov    $0x14,%edi
  403937:	e8 64 dd ff ff       	callq  4016a0 <ERR_put_error@plt>
  40393c:	b8 00 00 00 00       	mov    $0x0,%eax
  403941:	eb 7c                	jmp    4039bf <dtls1_add_cert_to_buf+0xf1>
  403943:	48 8b 45 e8          	mov    -0x18(%rbp),%rax
  403947:	48 8b 50 08          	mov    0x8(%rax),%rdx
  40394b:	48 8b 45 e0          	mov    -0x20(%rbp),%rax
  40394f:	48 8b 00             	mov    (%rax),%rax
  403952:	48 01 d0             	add    %rdx,%rax
  403955:	48 89 45 f0          	mov    %rax,-0x10(%rbp)
  403959:	48 8b 45 f0          	mov    -0x10(%rbp),%rax
  40395d:	8b 55 fc             	mov    -0x4(%rbp),%edx
  403960:	c1 fa 10             	sar    $0x10,%edx
  403963:	88 10                	mov    %dl,(%rax)
  403965:	48 8b 45 f0          	mov    -0x10(%rbp),%rax
  403969:	48 8d 50 01          	lea    0x1(%rax),%rdx
  40396d:	8b 45 fc             	mov    -0x4(%rbp),%eax
  403970:	c1 f8 08             	sar    $0x8,%eax
  403973:	88 02                	mov    %al,(%rdx)
  403975:	48 8b 45 f0          	mov    -0x10(%rbp),%rax
  403979:	48 8d 50 02          	lea    0x2(%rax),%rdx
  40397d:	8b 45 fc             	mov    -0x4(%rbp),%eax
  403980:	88 02                	mov    %al,(%rdx)
  403982:	48 8b 45 f0          	mov    -0x10(%rbp),%rax
  403986:	48 83 c0 03          	add    $0x3,%rax
  40398a:	48 89 45 f0          	mov    %rax,-0x10(%rbp)
  40398e:	48 8d 55 f0          	lea    -0x10(%rbp),%rdx
  403992:	48 8b 45 d8          	mov    -0x28(%rbp),%rax
  403996:	48 89 d6             	mov    %rdx,%rsi
  403999:	48 89 c7             	mov    %rax,%rdi
  40399c:	e8 df dd ff ff       	callq  401780 <i2d_X509@plt>
  4039a1:	48 8b 45 e0          	mov    -0x20(%rbp),%rax
  4039a5:	48 8b 10             	mov    (%rax),%rdx
  4039a8:	8b 45 fc             	mov    -0x4(%rbp),%eax
  4039ab:	83 c0 03             	add    $0x3,%eax
  4039ae:	48 98                	cltq   
  4039b0:	48 01 c2             	add    %rax,%rdx
  4039b3:	48 8b 45 e0          	mov    -0x20(%rbp),%rax
  4039b7:	48 89 10             	mov    %rdx,(%rax)
  4039ba:	b8 01 00 00 00       	mov    $0x1,%eax
  4039bf:	c9                   	leaveq 
  4039c0:	c3                   	retq   

00000000004039c1 <dtls1_output_cert_chain>:
  4039c1:	55                   	push   %rbp
  4039c2:	48 89 e5             	mov    %rsp,%rbp
  4039c5:	48 81 ec 30 01 00 00 	sub    $0x130,%rsp
  4039cc:	48 89 bd d8 fe ff ff 	mov    %rdi,-0x128(%rbp)
  4039d3:	48 89 b5 d0 fe ff ff 	mov    %rsi,-0x130(%rbp)
  4039da:	48 c7 45 e0 0f 00 00 	movq   $0xf,-0x20(%rbp)
  4039e1:	00 
  4039e2:	48 8b 85 d8 fe ff ff 	mov    -0x128(%rbp),%rax
  4039e9:	48 8b 40 50          	mov    0x50(%rax),%rax
  4039ed:	48 89 45 f0          	mov    %rax,-0x10(%rbp)
  4039f1:	48 8b 45 f0          	mov    -0x10(%rbp),%rax
  4039f5:	be 0a 00 00 00       	mov    $0xa,%esi
  4039fa:	48 89 c7             	mov    %rax,%rdi
  4039fd:	e8 3e dc ff ff       	callq  401640 <BUF_MEM_grow_clean@plt>
  403a02:	85 c0                	test   %eax,%eax
  403a04:	75 29                	jne    403a2f <dtls1_output_cert_chain+0x6e>
  403a06:	41 b8 07 04 00 00    	mov    $0x407,%r8d
  403a0c:	b9 b0 4e 40 00       	mov    $0x404eb0,%ecx
  403a11:	ba 07 00 00 00       	mov    $0x7,%edx
  403a16:	be ff 00 00 00       	mov    $0xff,%esi
  403a1b:	bf 14 00 00 00       	mov    $0x14,%edi
  403a20:	e8 7b dc ff ff       	callq  4016a0 <ERR_put_error@plt>
  403a25:	b8 00 00 00 00       	mov    $0x0,%eax
  403a2a:	e9 21 02 00 00       	jmpq   403c50 <dtls1_output_cert_chain+0x28f>
  403a2f:	48 83 bd d0 fe ff ff 	cmpq   $0x0,-0x130(%rbp)
  403a36:	00 
  403a37:	0f 84 ea 00 00 00    	je     403b27 <dtls1_output_cert_chain+0x166>
  403a3d:	48 8b 85 d8 fe ff ff 	mov    -0x128(%rbp),%rax
  403a44:	48 8b 80 78 01 00 00 	mov    0x178(%rax),%rax
  403a4b:	48 8b 70 18          	mov    0x18(%rax),%rsi
  403a4f:	48 8b 95 d0 fe ff ff 	mov    -0x130(%rbp),%rdx
  403a56:	48 8d 85 e0 fe ff ff 	lea    -0x120(%rbp),%rax
  403a5d:	b9 00 00 00 00       	mov    $0x0,%ecx
  403a62:	48 89 c7             	mov    %rax,%rdi
  403a65:	e8 f6 da ff ff       	callq  401560 <X509_STORE_CTX_init@plt>
  403a6a:	85 c0                	test   %eax,%eax
  403a6c:	75 29                	jne    403a97 <dtls1_output_cert_chain+0xd6>
  403a6e:	41 b8 10 04 00 00    	mov    $0x410,%r8d
  403a74:	b9 b0 4e 40 00       	mov    $0x404eb0,%ecx
  403a79:	ba 0b 00 00 00       	mov    $0xb,%edx
  403a7e:	be ff 00 00 00       	mov    $0xff,%esi
  403a83:	bf 14 00 00 00       	mov    $0x14,%edi
  403a88:	e8 13 dc ff ff       	callq  4016a0 <ERR_put_error@plt>
  403a8d:	b8 00 00 00 00       	mov    $0x0,%eax
  403a92:	e9 b9 01 00 00       	jmpq   403c50 <dtls1_output_cert_chain+0x28f>
  403a97:	48 8d 85 e0 fe ff ff 	lea    -0x120(%rbp),%rax
  403a9e:	48 89 c7             	mov    %rax,%rdi
  403aa1:	e8 ca da ff ff       	callq  401570 <X509_verify_cert@plt>
  403aa6:	e8 85 da ff ff       	callq  401530 <ERR_clear_error@plt>
  403aab:	c7 45 fc 00 00 00 00 	movl   $0x0,-0x4(%rbp)
  403ab2:	eb 53                	jmp    403b07 <dtls1_output_cert_chain+0x146>
  403ab4:	48 8b 45 80          	mov    -0x80(%rbp),%rax
  403ab8:	8b 55 fc             	mov    -0x4(%rbp),%edx
  403abb:	89 d6                	mov    %edx,%esi
  403abd:	48 89 c7             	mov    %rax,%rdi
  403ac0:	e8 8b da ff ff       	callq  401550 <sk_value@plt>
  403ac5:	48 89 85 d0 fe ff ff 	mov    %rax,-0x130(%rbp)
  403acc:	48 8b 95 d0 fe ff ff 	mov    -0x130(%rbp),%rdx
  403ad3:	48 8d 4d e0          	lea    -0x20(%rbp),%rcx
  403ad7:	48 8b 45 f0          	mov    -0x10(%rbp),%rax
  403adb:	48 89 ce             	mov    %rcx,%rsi
  403ade:	48 89 c7             	mov    %rax,%rdi
  403ae1:	e8 e8 fd ff ff       	callq  4038ce <dtls1_add_cert_to_buf>
  403ae6:	85 c0                	test   %eax,%eax
  403ae8:	75 19                	jne    403b03 <dtls1_output_cert_chain+0x142>
  403aea:	48 8d 85 e0 fe ff ff 	lea    -0x120(%rbp),%rax
  403af1:	48 89 c7             	mov    %rax,%rdi
  403af4:	e8 87 da ff ff       	callq  401580 <X509_STORE_CTX_cleanup@plt>
  403af9:	b8 00 00 00 00       	mov    $0x0,%eax
  403afe:	e9 4d 01 00 00       	jmpq   403c50 <dtls1_output_cert_chain+0x28f>
  403b03:	83 45 fc 01          	addl   $0x1,-0x4(%rbp)
  403b07:	48 8b 45 80          	mov    -0x80(%rbp),%rax
  403b0b:	48 89 c7             	mov    %rax,%rdi
  403b0e:	e8 0d dc ff ff       	callq  401720 <sk_num@plt>
  403b13:	3b 45 fc             	cmp    -0x4(%rbp),%eax
  403b16:	7f 9c                	jg     403ab4 <dtls1_output_cert_chain+0xf3>
  403b18:	48 8d 85 e0 fe ff ff 	lea    -0x120(%rbp),%rax
  403b1f:	48 89 c7             	mov    %rax,%rdi
  403b22:	e8 59 da ff ff       	callq  401580 <X509_STORE_CTX_cleanup@plt>
  403b27:	c7 45 fc 00 00 00 00 	movl   $0x0,-0x4(%rbp)
  403b2e:	eb 55                	jmp    403b85 <dtls1_output_cert_chain+0x1c4>
  403b30:	48 8b 85 d8 fe ff ff 	mov    -0x128(%rbp),%rax
  403b37:	48 8b 80 78 01 00 00 	mov    0x178(%rax),%rax
  403b3e:	48 8b 80 f8 00 00 00 	mov    0xf8(%rax),%rax
  403b45:	8b 55 fc             	mov    -0x4(%rbp),%edx
  403b48:	89 d6                	mov    %edx,%esi
  403b4a:	48 89 c7             	mov    %rax,%rdi
  403b4d:	e8 fe d9 ff ff       	callq  401550 <sk_value@plt>
  403b52:	48 89 85 d0 fe ff ff 	mov    %rax,-0x130(%rbp)
  403b59:	48 8b 95 d0 fe ff ff 	mov    -0x130(%rbp),%rdx
  403b60:	48 8d 4d e0          	lea    -0x20(%rbp),%rcx
  403b64:	48 8b 45 f0          	mov    -0x10(%rbp),%rax
  403b68:	48 89 ce             	mov    %rcx,%rsi
  403b6b:	48 89 c7             	mov    %rax,%rdi
  403b6e:	e8 5b fd ff ff       	callq  4038ce <dtls1_add_cert_to_buf>
  403b73:	85 c0                	test   %eax,%eax
  403b75:	75 0a                	jne    403b81 <dtls1_output_cert_chain+0x1c0>
  403b77:	b8 00 00 00 00       	mov    $0x0,%eax
  403b7c:	e9 cf 00 00 00       	jmpq   403c50 <dtls1_output_cert_chain+0x28f>
  403b81:	83 45 fc 01          	addl   $0x1,-0x4(%rbp)
  403b85:	48 8b 85 d8 fe ff ff 	mov    -0x128(%rbp),%rax
  403b8c:	48 8b 80 78 01 00 00 	mov    0x178(%rax),%rax
  403b93:	48 8b 80 f8 00 00 00 	mov    0xf8(%rax),%rax
  403b9a:	48 89 c7             	mov    %rax,%rdi
  403b9d:	e8 7e db ff ff       	callq  401720 <sk_num@plt>
  403ba2:	3b 45 fc             	cmp    -0x4(%rbp),%eax
  403ba5:	7f 89                	jg     403b30 <dtls1_output_cert_chain+0x16f>
  403ba7:	48 8b 45 e0          	mov    -0x20(%rbp),%rax
  403bab:	48 83 e8 0f          	sub    $0xf,%rax
  403baf:	48 89 45 e0          	mov    %rax,-0x20(%rbp)
  403bb3:	48 8b 45 f0          	mov    -0x10(%rbp),%rax
  403bb7:	48 8b 40 08          	mov    0x8(%rax),%rax
  403bbb:	48 83 c0 0c          	add    $0xc,%rax
  403bbf:	48 89 45 e8          	mov    %rax,-0x18(%rbp)
  403bc3:	48 8b 45 e0          	mov    -0x20(%rbp),%rax
  403bc7:	48 c1 e8 10          	shr    $0x10,%rax
  403bcb:	89 c2                	mov    %eax,%edx
  403bcd:	48 8b 45 e8          	mov    -0x18(%rbp),%rax
  403bd1:	88 10                	mov    %dl,(%rax)
  403bd3:	48 8b 45 e8          	mov    -0x18(%rbp),%rax
  403bd7:	48 8d 50 01          	lea    0x1(%rax),%rdx
  403bdb:	48 8b 45 e0          	mov    -0x20(%rbp),%rax
  403bdf:	48 c1 e8 08          	shr    $0x8,%rax
  403be3:	88 02                	mov    %al,(%rdx)
  403be5:	48 8b 45 e8          	mov    -0x18(%rbp),%rax
  403be9:	48 8d 50 02          	lea    0x2(%rax),%rdx
  403bed:	48 8b 45 e0          	mov    -0x20(%rbp),%rax
  403bf1:	88 02                	mov    %al,(%rdx)
  403bf3:	48 83 45 e8 03       	addq   $0x3,-0x18(%rbp)
  403bf8:	48 8b 45 e0          	mov    -0x20(%rbp),%rax
  403bfc:	48 83 c0 03          	add    $0x3,%rax
  403c00:	48 89 45 e0          	mov    %rax,-0x20(%rbp)
  403c04:	48 8b 45 f0          	mov    -0x10(%rbp),%rax
  403c08:	48 8b 40 08          	mov    0x8(%rax),%rax
  403c0c:	48 89 45 e8          	mov    %rax,-0x18(%rbp)
  403c10:	48 8b 4d e0          	mov    -0x20(%rbp),%rcx
  403c14:	48 8b 55 e0          	mov    -0x20(%rbp),%rdx
  403c18:	48 8b 75 e8          	mov    -0x18(%rbp),%rsi
  403c1c:	48 8b 85 d8 fe ff ff 	mov    -0x128(%rbp),%rax
  403c23:	49 89 c9             	mov    %rcx,%r9
  403c26:	41 b8 00 00 00 00    	mov    $0x0,%r8d
  403c2c:	48 89 d1             	mov    %rdx,%rcx
  403c2f:	ba 0b 00 00 00       	mov    $0xb,%edx
  403c34:	48 89 c7             	mov    %rax,%rdi
  403c37:	e8 71 08 00 00       	callq  4044ad <dtls1_set_message_header>
  403c3c:	48 89 45 e8          	mov    %rax,-0x18(%rbp)
  403c40:	48 8b 45 e0          	mov    -0x20(%rbp),%rax
  403c44:	48 83 c0 0c          	add    $0xc,%rax
  403c48:	48 89 45 e0          	mov    %rax,-0x20(%rbp)
  403c4c:	48 8b 45 e0          	mov    -0x20(%rbp),%rax
  403c50:	c9                   	leaveq 
  403c51:	c3                   	retq   

0000000000403c52 <dtls1_read_failed>:
  403c52:	55                   	push   %rbp
  403c53:	48 89 e5             	mov    %rsp,%rbp
  403c56:	48 83 ec 10          	sub    $0x10,%rsp
  403c5a:	48 89 7d f8          	mov    %rdi,-0x8(%rbp)
  403c5e:	89 75 f4             	mov    %esi,-0xc(%rbp)
  403c61:	83 7d f4 00          	cmpl   $0x0,-0xc(%rbp)
  403c65:	7e 2a                	jle    403c91 <dtls1_read_failed+0x3f>
  403c67:	48 8b 05 42 25 20 00 	mov    0x202542(%rip),%rax        # 6061b0 <__TMC_END__>
  403c6e:	b9 3b 04 00 00       	mov    $0x43b,%ecx
  403c73:	ba b0 4e 40 00       	mov    $0x404eb0,%edx
  403c78:	be ae 4f 40 00       	mov    $0x404fae,%esi
  403c7d:	48 89 c7             	mov    %rax,%rdi
  403c80:	b8 00 00 00 00       	mov    $0x0,%eax
  403c85:	e8 86 da ff ff       	callq  401710 <fprintf@plt>
  403c8a:	b8 01 00 00 00       	mov    $0x1,%eax
  403c8f:	eb 62                	jmp    403cf3 <dtls1_read_failed+0xa1>
  403c91:	48 8b 45 f8          	mov    -0x8(%rbp),%rax
  403c95:	48 89 c7             	mov    %rax,%rdi
  403c98:	e8 33 da ff ff       	callq  4016d0 <dtls1_is_timer_expired@plt>
  403c9d:	85 c0                	test   %eax,%eax
  403c9f:	75 05                	jne    403ca6 <dtls1_read_failed+0x54>
  403ca1:	8b 45 f4             	mov    -0xc(%rbp),%eax
  403ca4:	eb 4d                	jmp    403cf3 <dtls1_read_failed+0xa1>
  403ca6:	48 8b 45 f8          	mov    -0x8(%rbp),%rax
  403caa:	48 89 c7             	mov    %rax,%rdi
  403cad:	e8 9e da ff ff       	callq  401750 <SSL_state@plt>
  403cb2:	25 00 30 00 00       	and    $0x3000,%eax
  403cb7:	85 c0                	test   %eax,%eax
  403cb9:	75 2c                	jne    403ce7 <dtls1_read_failed+0x95>
  403cbb:	48 8b 45 f8          	mov    -0x8(%rbp),%rax
  403cbf:	8b 80 a4 02 00 00    	mov    0x2a4(%rax),%eax
  403cc5:	85 c0                	test   %eax,%eax
  403cc7:	75 1e                	jne    403ce7 <dtls1_read_failed+0x95>
  403cc9:	48 8b 45 f8          	mov    -0x8(%rbp),%rax
  403ccd:	48 89 c7             	mov    %rax,%rdi
  403cd0:	e8 8b da ff ff       	callq  401760 <SSL_get_rbio@plt>
  403cd5:	be 01 00 00 00       	mov    $0x1,%esi
  403cda:	48 89 c7             	mov    %rax,%rdi
  403cdd:	e8 ce da ff ff       	callq  4017b0 <BIO_set_flags@plt>
  403ce2:	8b 45 f4             	mov    -0xc(%rbp),%eax
  403ce5:	eb 0c                	jmp    403cf3 <dtls1_read_failed+0xa1>
  403ce7:	48 8b 45 f8          	mov    -0x8(%rbp),%rax
  403ceb:	48 89 c7             	mov    %rax,%rdi
  403cee:	e8 9d da ff ff       	callq  401790 <dtls1_handle_timeout@plt>
  403cf3:	c9                   	leaveq 
  403cf4:	c3                   	retq   

0000000000403cf5 <dtls1_get_queue_priority>:
  403cf5:	55                   	push   %rbp
  403cf6:	48 89 e5             	mov    %rsp,%rbp
  403cf9:	89 f8                	mov    %edi,%eax
  403cfb:	89 75 f8             	mov    %esi,-0x8(%rbp)
  403cfe:	66 89 45 fc          	mov    %ax,-0x4(%rbp)
  403d02:	0f b7 45 fc          	movzwl -0x4(%rbp),%eax
  403d06:	01 c0                	add    %eax,%eax
  403d08:	2b 45 f8             	sub    -0x8(%rbp),%eax
  403d0b:	5d                   	pop    %rbp
  403d0c:	c3                   	retq   

0000000000403d0d <dtls1_retransmit_buffered_messages>:
  403d0d:	55                   	push   %rbp
  403d0e:	48 89 e5             	mov    %rsp,%rbp
  403d11:	48 83 ec 40          	sub    $0x40,%rsp
  403d15:	48 89 7d c8          	mov    %rdi,-0x38(%rbp)
  403d19:	48 8b 45 c8          	mov    -0x38(%rbp),%rax
  403d1d:	48 8b 80 88 00 00 00 	mov    0x88(%rax),%rax
  403d24:	48 8b 80 68 02 00 00 	mov    0x268(%rax),%rax
  403d2b:	48 89 45 f0          	mov    %rax,-0x10(%rbp)
  403d2f:	c7 45 dc 00 00 00 00 	movl   $0x0,-0x24(%rbp)
  403d36:	48 8b 45 f0          	mov    -0x10(%rbp),%rax
  403d3a:	48 89 c7             	mov    %rax,%rdi
  403d3d:	e8 ae d9 ff ff       	callq  4016f0 <pqueue_iterator@plt>
  403d42:	48 89 45 e0          	mov    %rax,-0x20(%rbp)
  403d46:	48 8d 45 e0          	lea    -0x20(%rbp),%rax
  403d4a:	48 89 c7             	mov    %rax,%rdi
  403d4d:	e8 ae da ff ff       	callq  401800 <pqueue_next@plt>
  403d52:	48 89 45 f8          	mov    %rax,-0x8(%rbp)
  403d56:	e9 84 00 00 00       	jmpq   403ddf <dtls1_retransmit_buffered_messages+0xd2>
  403d5b:	48 8b 45 f8          	mov    -0x8(%rbp),%rax
  403d5f:	48 8b 40 08          	mov    0x8(%rax),%rax
  403d63:	48 89 45 e8          	mov    %rax,-0x18(%rbp)
  403d67:	48 8b 45 e8          	mov    -0x18(%rbp),%rax
  403d6b:	8b 40 28             	mov    0x28(%rax),%eax
  403d6e:	89 c2                	mov    %eax,%edx
  403d70:	48 8b 45 e8          	mov    -0x18(%rbp),%rax
  403d74:	0f b7 40 10          	movzwl 0x10(%rax),%eax
  403d78:	0f b7 c0             	movzwl %ax,%eax
  403d7b:	89 d6                	mov    %edx,%esi
  403d7d:	89 c7                	mov    %eax,%edi
  403d7f:	e8 71 ff ff ff       	callq  403cf5 <dtls1_get_queue_priority>
  403d84:	0f b7 f0             	movzwl %ax,%esi
  403d87:	48 8d 55 dc          	lea    -0x24(%rbp),%rdx
  403d8b:	48 8b 45 c8          	mov    -0x38(%rbp),%rax
  403d8f:	48 89 d1             	mov    %rdx,%rcx
  403d92:	ba 00 00 00 00       	mov    $0x0,%edx
  403d97:	48 89 c7             	mov    %rax,%rdi
  403d9a:	e8 e7 02 00 00       	callq  404086 <dtls1_retransmit_message>
  403d9f:	85 c0                	test   %eax,%eax
  403da1:	7f 2c                	jg     403dcf <dtls1_retransmit_buffered_messages+0xc2>
  403da3:	8b 45 dc             	mov    -0x24(%rbp),%eax
  403da6:	85 c0                	test   %eax,%eax
  403da8:	74 25                	je     403dcf <dtls1_retransmit_buffered_messages+0xc2>
  403daa:	48 8b 05 ff 23 20 00 	mov    0x2023ff(%rip),%rax        # 6061b0 <__TMC_END__>
  403db1:	48 89 c1             	mov    %rax,%rcx
  403db4:	ba 22 00 00 00       	mov    $0x22,%edx
  403db9:	be 01 00 00 00       	mov    $0x1,%esi
  403dbe:	bf d0 4f 40 00       	mov    $0x404fd0,%edi
  403dc3:	e8 28 da ff ff       	callq  4017f0 <fwrite@plt>
  403dc8:	b8 ff ff ff ff       	mov    $0xffffffff,%eax
  403dcd:	eb 20                	jmp    403def <dtls1_retransmit_buffered_messages+0xe2>
  403dcf:	48 8d 45 e0          	lea    -0x20(%rbp),%rax
  403dd3:	48 89 c7             	mov    %rax,%rdi
  403dd6:	e8 25 da ff ff       	callq  401800 <pqueue_next@plt>
  403ddb:	48 89 45 f8          	mov    %rax,-0x8(%rbp)
  403ddf:	48 83 7d f8 00       	cmpq   $0x0,-0x8(%rbp)
  403de4:	0f 85 71 ff ff ff    	jne    403d5b <dtls1_retransmit_buffered_messages+0x4e>
  403dea:	b8 01 00 00 00       	mov    $0x1,%eax
  403def:	c9                   	leaveq 
  403df0:	c3                   	retq   

0000000000403df1 <dtls1_buffer_message>:
  403df1:	55                   	push   %rbp
  403df2:	48 89 e5             	mov    %rsp,%rbp
  403df5:	48 83 ec 30          	sub    $0x30,%rsp
  403df9:	48 89 7d d8          	mov    %rdi,-0x28(%rbp)
  403dfd:	89 75 d4             	mov    %esi,-0x2c(%rbp)
  403e00:	48 8b 45 d8          	mov    -0x28(%rbp),%rax
  403e04:	8b 40 64             	mov    0x64(%rax),%eax
  403e07:	85 c0                	test   %eax,%eax
  403e09:	74 14                	je     403e1f <dtls1_buffer_message+0x2e>
  403e0b:	ba f3 4f 40 00       	mov    $0x404ff3,%edx
  403e10:	be 93 04 00 00       	mov    $0x493,%esi
  403e15:	bf b0 4e 40 00       	mov    $0x404eb0,%edi
  403e1a:	e8 31 d8 ff ff       	callq  401650 <OpenSSLDie@plt>
  403e1f:	48 8b 45 d8          	mov    -0x28(%rbp),%rax
  403e23:	8b 40 60             	mov    0x60(%rax),%eax
  403e26:	48 98                	cltq   
  403e28:	be 00 00 00 00       	mov    $0x0,%esi
  403e2d:	48 89 c7             	mov    %rax,%rdi
  403e30:	e8 cb da ff ff       	callq  401900 <dtls1_hm_fragment_new>
  403e35:	48 89 45 f8          	mov    %rax,-0x8(%rbp)
  403e39:	48 8b 45 d8          	mov    -0x28(%rbp),%rax
  403e3d:	8b 40 60             	mov    0x60(%rax),%eax
  403e40:	48 63 d0             	movslq %eax,%rdx
  403e43:	48 8b 45 d8          	mov    -0x28(%rbp),%rax
  403e47:	48 8b 40 50          	mov    0x50(%rax),%rax
  403e4b:	48 8b 48 08          	mov    0x8(%rax),%rcx
  403e4f:	48 8b 45 f8          	mov    -0x8(%rbp),%rax
  403e53:	48 8b 40 58          	mov    0x58(%rax),%rax
  403e57:	48 89 ce             	mov    %rcx,%rsi
  403e5a:	48 89 c7             	mov    %rax,%rdi
  403e5d:	e8 be d7 ff ff       	callq  401620 <memcpy@plt>
  403e62:	83 7d d4 00          	cmpl   $0x0,-0x2c(%rbp)
  403e66:	74 52                	je     403eba <dtls1_buffer_message+0xc9>
  403e68:	48 8b 45 d8          	mov    -0x28(%rbp),%rax
  403e6c:	48 8b 80 88 00 00 00 	mov    0x88(%rax),%rax
  403e73:	48 8b 90 90 02 00 00 	mov    0x290(%rax),%rdx
  403e7a:	48 8b 45 d8          	mov    -0x28(%rbp),%rax
  403e7e:	8b 00                	mov    (%rax),%eax
  403e80:	3d ff fe 00 00       	cmp    $0xfeff,%eax
  403e85:	75 07                	jne    403e8e <dtls1_buffer_message+0x9d>
  403e87:	b8 01 00 00 00       	mov    $0x1,%eax
  403e8c:	eb 05                	jmp    403e93 <dtls1_buffer_message+0xa2>
  403e8e:	b8 03 00 00 00       	mov    $0x3,%eax
  403e93:	48 01 c2             	add    %rax,%rdx
  403e96:	48 8b 45 d8          	mov    -0x28(%rbp),%rax
  403e9a:	8b 40 60             	mov    0x60(%rax),%eax
  403e9d:	89 c0                	mov    %eax,%eax
  403e9f:	48 39 c2             	cmp    %rax,%rdx
  403ea2:	74 4e                	je     403ef2 <dtls1_buffer_message+0x101>
  403ea4:	ba 08 50 40 00       	mov    $0x405008,%edx
  403ea9:	be 9c 04 00 00       	mov    $0x49c,%esi
  403eae:	bf b0 4e 40 00       	mov    $0x404eb0,%edi
  403eb3:	e8 98 d7 ff ff       	callq  401650 <OpenSSLDie@plt>
  403eb8:	eb 38                	jmp    403ef2 <dtls1_buffer_message+0x101>
  403eba:	48 8b 45 d8          	mov    -0x28(%rbp),%rax
  403ebe:	48 8b 80 88 00 00 00 	mov    0x88(%rax),%rax
  403ec5:	48 8b 80 90 02 00 00 	mov    0x290(%rax),%rax
  403ecc:	48 8d 50 0c          	lea    0xc(%rax),%rdx
  403ed0:	48 8b 45 d8          	mov    -0x28(%rbp),%rax
  403ed4:	8b 40 60             	mov    0x60(%rax),%eax
  403ed7:	89 c0                	mov    %eax,%eax
  403ed9:	48 39 c2             	cmp    %rax,%rdx
  403edc:	74 14                	je     403ef2 <dtls1_buffer_message+0x101>
  403ede:	ba 78 50 40 00       	mov    $0x405078,%edx
  403ee3:	be a1 04 00 00       	mov    $0x4a1,%esi
  403ee8:	bf b0 4e 40 00       	mov    $0x404eb0,%edi
  403eed:	e8 5e d7 ff ff       	callq  401650 <OpenSSLDie@plt>
  403ef2:	48 8b 45 d8          	mov    -0x28(%rbp),%rax
  403ef6:	48 8b 80 88 00 00 00 	mov    0x88(%rax),%rax
  403efd:	48 8b 90 90 02 00 00 	mov    0x290(%rax),%rdx
  403f04:	48 8b 45 f8          	mov    -0x8(%rbp),%rax
  403f08:	48 89 50 08          	mov    %rdx,0x8(%rax)
  403f0c:	48 8b 45 d8          	mov    -0x28(%rbp),%rax
  403f10:	48 8b 80 88 00 00 00 	mov    0x88(%rax),%rax
  403f17:	0f b7 90 98 02 00 00 	movzwl 0x298(%rax),%edx
  403f1e:	48 8b 45 f8          	mov    -0x8(%rbp),%rax
  403f22:	66 89 50 10          	mov    %dx,0x10(%rax)
  403f26:	48 8b 45 d8          	mov    -0x28(%rbp),%rax
  403f2a:	48 8b 80 88 00 00 00 	mov    0x88(%rax),%rax
  403f31:	0f b6 90 88 02 00 00 	movzbl 0x288(%rax),%edx
  403f38:	48 8b 45 f8          	mov    -0x8(%rbp),%rax
  403f3c:	88 10                	mov    %dl,(%rax)
  403f3e:	48 8b 45 f8          	mov    -0x8(%rbp),%rax
  403f42:	48 c7 40 18 00 00 00 	movq   $0x0,0x18(%rax)
  403f49:	00 
  403f4a:	48 8b 45 d8          	mov    -0x28(%rbp),%rax
  403f4e:	48 8b 80 88 00 00 00 	mov    0x88(%rax),%rax
  403f55:	48 8b 90 90 02 00 00 	mov    0x290(%rax),%rdx
  403f5c:	48 8b 45 f8          	mov    -0x8(%rbp),%rax
  403f60:	48 89 50 20          	mov    %rdx,0x20(%rax)
  403f64:	8b 55 d4             	mov    -0x2c(%rbp),%edx
  403f67:	48 8b 45 f8          	mov    -0x8(%rbp),%rax
  403f6b:	89 50 28             	mov    %edx,0x28(%rax)
  403f6e:	48 8b 45 d8          	mov    -0x28(%rbp),%rax
  403f72:	48 8b 90 e8 00 00 00 	mov    0xe8(%rax),%rdx
  403f79:	48 8b 45 f8          	mov    -0x8(%rbp),%rax
  403f7d:	48 89 50 30          	mov    %rdx,0x30(%rax)
  403f81:	48 8b 45 d8          	mov    -0x28(%rbp),%rax
  403f85:	48 8b 90 f0 00 00 00 	mov    0xf0(%rax),%rdx
  403f8c:	48 8b 45 f8          	mov    -0x8(%rbp),%rax
  403f90:	48 89 50 38          	mov    %rdx,0x38(%rax)
  403f94:	48 8b 45 d8          	mov    -0x28(%rbp),%rax
  403f98:	48 8b 90 f8 00 00 00 	mov    0xf8(%rax),%rdx
  403f9f:	48 8b 45 f8          	mov    -0x8(%rbp),%rax
  403fa3:	48 89 50 40          	mov    %rdx,0x40(%rax)
  403fa7:	48 8b 45 d8          	mov    -0x28(%rbp),%rax
  403fab:	48 8b 90 30 01 00 00 	mov    0x130(%rax),%rdx
  403fb2:	48 8b 45 f8          	mov    -0x8(%rbp),%rax
  403fb6:	48 89 50 48          	mov    %rdx,0x48(%rax)
  403fba:	48 8b 45 d8          	mov    -0x28(%rbp),%rax
  403fbe:	48 8b 80 88 00 00 00 	mov    0x88(%rax),%rax
  403fc5:	0f b7 90 0a 02 00 00 	movzwl 0x20a(%rax),%edx
  403fcc:	48 8b 45 f8          	mov    -0x8(%rbp),%rax
  403fd0:	66 89 50 50          	mov    %dx,0x50(%rax)
  403fd4:	48 8d 45 e0          	lea    -0x20(%rbp),%rax
  403fd8:	ba 08 00 00 00       	mov    $0x8,%edx
  403fdd:	be 00 00 00 00       	mov    $0x0,%esi
  403fe2:	48 89 c7             	mov    %rax,%rdi
  403fe5:	e8 a6 d5 ff ff       	callq  401590 <memset@plt>
  403fea:	48 8b 45 f8          	mov    -0x8(%rbp),%rax
  403fee:	8b 40 28             	mov    0x28(%rax),%eax
  403ff1:	89 c2                	mov    %eax,%edx
  403ff3:	48 8b 45 f8          	mov    -0x8(%rbp),%rax
  403ff7:	0f b7 40 10          	movzwl 0x10(%rax),%eax
  403ffb:	0f b7 c0             	movzwl %ax,%eax
  403ffe:	89 d6                	mov    %edx,%esi
  404000:	89 c7                	mov    %eax,%edi
  404002:	e8 ee fc ff ff       	callq  403cf5 <dtls1_get_queue_priority>
  404007:	c1 f8 08             	sar    $0x8,%eax
  40400a:	88 45 e6             	mov    %al,-0x1a(%rbp)
  40400d:	48 8b 45 f8          	mov    -0x8(%rbp),%rax
  404011:	8b 40 28             	mov    0x28(%rax),%eax
  404014:	89 c2                	mov    %eax,%edx
  404016:	48 8b 45 f8          	mov    -0x8(%rbp),%rax
  40401a:	0f b7 40 10          	movzwl 0x10(%rax),%eax
  40401e:	0f b7 c0             	movzwl %ax,%eax
  404021:	89 d6                	mov    %edx,%esi
  404023:	89 c7                	mov    %eax,%edi
  404025:	e8 cb fc ff ff       	callq  403cf5 <dtls1_get_queue_priority>
  40402a:	88 45 e7             	mov    %al,-0x19(%rbp)
  40402d:	48 8b 55 f8          	mov    -0x8(%rbp),%rdx
  404031:	48 8d 45 e0          	lea    -0x20(%rbp),%rax
  404035:	48 89 d6             	mov    %rdx,%rsi
  404038:	48 89 c7             	mov    %rax,%rdi
  40403b:	e8 40 d6 ff ff       	callq  401680 <pitem_new@plt>
  404040:	48 89 45 f0          	mov    %rax,-0x10(%rbp)
  404044:	48 83 7d f0 00       	cmpq   $0x0,-0x10(%rbp)
  404049:	75 13                	jne    40405e <dtls1_buffer_message+0x26d>
  40404b:	48 8b 45 f8          	mov    -0x8(%rbp),%rax
  40404f:	48 89 c7             	mov    %rax,%rdi
  404052:	e8 c8 d9 ff ff       	callq  401a1f <dtls1_hm_fragment_free>
  404057:	b8 00 00 00 00       	mov    $0x0,%eax
  40405c:	eb 26                	jmp    404084 <dtls1_buffer_message+0x293>
  40405e:	48 8b 45 d8          	mov    -0x28(%rbp),%rax
  404062:	48 8b 80 88 00 00 00 	mov    0x88(%rax),%rax
  404069:	48 8b 80 68 02 00 00 	mov    0x268(%rax),%rax
  404070:	48 8b 55 f0          	mov    -0x10(%rbp),%rdx
  404074:	48 89 d6             	mov    %rdx,%rsi
  404077:	48 89 c7             	mov    %rax,%rdi
  40407a:	e8 61 d6 ff ff       	callq  4016e0 <pqueue_insert@plt>
  40407f:	b8 01 00 00 00       	mov    $0x1,%eax
  404084:	c9                   	leaveq 
  404085:	c3                   	retq   

0000000000404086 <dtls1_retransmit_message>:
  404086:	55                   	push   %rbp
  404087:	48 89 e5             	mov    %rsp,%rbp
  40408a:	48 81 ec 90 00 00 00 	sub    $0x90,%rsp
  404091:	48 89 7d 88          	mov    %rdi,-0x78(%rbp)
  404095:	89 f0                	mov    %esi,%eax
  404097:	48 89 95 78 ff ff ff 	mov    %rdx,-0x88(%rbp)
  40409e:	48 89 8d 70 ff ff ff 	mov    %rcx,-0x90(%rbp)
  4040a5:	66 89 45 84          	mov    %ax,-0x7c(%rbp)
  4040a9:	48 8d 45 d0          	lea    -0x30(%rbp),%rax
  4040ad:	ba 08 00 00 00       	mov    $0x8,%edx
  4040b2:	be 00 00 00 00       	mov    $0x0,%esi
  4040b7:	48 89 c7             	mov    %rax,%rdi
  4040ba:	e8 d1 d4 ff ff       	callq  401590 <memset@plt>
  4040bf:	0f b7 45 84          	movzwl -0x7c(%rbp),%eax
  4040c3:	66 c1 e8 08          	shr    $0x8,%ax
  4040c7:	88 45 d6             	mov    %al,-0x2a(%rbp)
  4040ca:	0f b7 45 84          	movzwl -0x7c(%rbp),%eax
  4040ce:	88 45 d7             	mov    %al,-0x29(%rbp)
  4040d1:	48 8b 45 88          	mov    -0x78(%rbp),%rax
  4040d5:	48 8b 80 88 00 00 00 	mov    0x88(%rax),%rax
  4040dc:	48 8b 80 68 02 00 00 	mov    0x268(%rax),%rax
  4040e3:	48 8d 55 d0          	lea    -0x30(%rbp),%rdx
  4040e7:	48 89 d6             	mov    %rdx,%rsi
  4040ea:	48 89 c7             	mov    %rax,%rdi
  4040ed:	e8 3e d6 ff ff       	callq  401730 <pqueue_find@plt>
  4040f2:	48 89 45 f0          	mov    %rax,-0x10(%rbp)
  4040f6:	48 83 7d f0 00       	cmpq   $0x0,-0x10(%rbp)
  4040fb:	75 34                	jne    404131 <dtls1_retransmit_message+0xab>
  4040fd:	0f b7 55 84          	movzwl -0x7c(%rbp),%edx
  404101:	48 8b 05 a8 20 20 00 	mov    0x2020a8(%rip),%rax        # 6061b0 <__TMC_END__>
  404108:	be c8 50 40 00       	mov    $0x4050c8,%esi
  40410d:	48 89 c7             	mov    %rax,%rdi
  404110:	b8 00 00 00 00       	mov    $0x0,%eax
  404115:	e8 f6 d5 ff ff       	callq  401710 <fprintf@plt>
  40411a:	48 8b 85 70 ff ff ff 	mov    -0x90(%rbp),%rax
  404121:	c7 00 00 00 00 00    	movl   $0x0,(%rax)
  404127:	b8 00 00 00 00       	mov    $0x0,%eax
  40412c:	e9 0b 03 00 00       	jmpq   40443c <dtls1_retransmit_message+0x3b6>
  404131:	48 8b 85 70 ff ff ff 	mov    -0x90(%rbp),%rax
  404138:	c7 00 01 00 00 00    	movl   $0x1,(%rax)
  40413e:	48 8b 45 f0          	mov    -0x10(%rbp),%rax
  404142:	48 8b 40 08          	mov    0x8(%rax),%rax
  404146:	48 89 45 e8          	mov    %rax,-0x18(%rbp)
  40414a:	48 8b 45 e8          	mov    -0x18(%rbp),%rax
  40414e:	8b 40 28             	mov    0x28(%rax),%eax
  404151:	85 c0                	test   %eax,%eax
  404153:	74 0a                	je     40415f <dtls1_retransmit_message+0xd9>
  404155:	48 c7 45 f8 01 00 00 	movq   $0x1,-0x8(%rbp)
  40415c:	00 
  40415d:	eb 08                	jmp    404167 <dtls1_retransmit_message+0xe1>
  40415f:	48 c7 45 f8 0c 00 00 	movq   $0xc,-0x8(%rbp)
  404166:	00 
  404167:	48 8b 45 e8          	mov    -0x18(%rbp),%rax
  40416b:	48 8b 50 08          	mov    0x8(%rax),%rdx
  40416f:	48 8b 45 f8          	mov    -0x8(%rbp),%rax
  404173:	48 01 c2             	add    %rax,%rdx
  404176:	48 8b 45 e8          	mov    -0x18(%rbp),%rax
  40417a:	48 8b 48 58          	mov    0x58(%rax),%rcx
  40417e:	48 8b 45 88          	mov    -0x78(%rbp),%rax
  404182:	48 8b 40 50          	mov    0x50(%rax),%rax
  404186:	48 8b 40 08          	mov    0x8(%rax),%rax
  40418a:	48 89 ce             	mov    %rcx,%rsi
  40418d:	48 89 c7             	mov    %rax,%rdi
  404190:	e8 8b d4 ff ff       	callq  401620 <memcpy@plt>
  404195:	48 8b 45 e8          	mov    -0x18(%rbp),%rax
  404199:	48 8b 40 08          	mov    0x8(%rax),%rax
  40419d:	89 c2                	mov    %eax,%edx
  40419f:	48 8b 45 f8          	mov    -0x8(%rbp),%rax
  4041a3:	01 d0                	add    %edx,%eax
  4041a5:	89 c2                	mov    %eax,%edx
  4041a7:	48 8b 45 88          	mov    -0x78(%rbp),%rax
  4041ab:	89 50 60             	mov    %edx,0x60(%rax)
  4041ae:	48 8b 45 e8          	mov    -0x18(%rbp),%rax
  4041b2:	48 8b 78 20          	mov    0x20(%rax),%rdi
  4041b6:	48 8b 45 e8          	mov    -0x18(%rbp),%rax
  4041ba:	0f b7 40 10          	movzwl 0x10(%rax),%eax
  4041be:	0f b7 c8             	movzwl %ax,%ecx
  4041c1:	48 8b 45 e8          	mov    -0x18(%rbp),%rax
  4041c5:	48 8b 50 08          	mov    0x8(%rax),%rdx
  4041c9:	48 8b 45 e8          	mov    -0x18(%rbp),%rax
  4041cd:	0f b6 00             	movzbl (%rax),%eax
  4041d0:	0f b6 f0             	movzbl %al,%esi
  4041d3:	48 8b 45 88          	mov    -0x78(%rbp),%rax
  4041d7:	49 89 f9             	mov    %rdi,%r9
  4041da:	41 b8 00 00 00 00    	mov    $0x0,%r8d
  4041e0:	48 89 c7             	mov    %rax,%rdi
  4041e3:	e8 84 03 00 00       	callq  40456c <dtls1_set_message_header_int>
  4041e8:	48 8b 45 88          	mov    -0x78(%rbp),%rax
  4041ec:	48 8b 80 e8 00 00 00 	mov    0xe8(%rax),%rax
  4041f3:	48 89 45 a0          	mov    %rax,-0x60(%rbp)
  4041f7:	48 8b 45 88          	mov    -0x78(%rbp),%rax
  4041fb:	48 8b 80 f0 00 00 00 	mov    0xf0(%rax),%rax
  404202:	48 89 45 a8          	mov    %rax,-0x58(%rbp)
  404206:	48 8b 45 88          	mov    -0x78(%rbp),%rax
  40420a:	48 8b 80 f8 00 00 00 	mov    0xf8(%rax),%rax
  404211:	48 89 45 b0          	mov    %rax,-0x50(%rbp)
  404215:	48 8b 45 88          	mov    -0x78(%rbp),%rax
  404219:	48 8b 80 30 01 00 00 	mov    0x130(%rax),%rax
  404220:	48 89 45 b8          	mov    %rax,-0x48(%rbp)
  404224:	48 8b 45 88          	mov    -0x78(%rbp),%rax
  404228:	48 8b 80 88 00 00 00 	mov    0x88(%rax),%rax
  40422f:	0f b7 80 0a 02 00 00 	movzwl 0x20a(%rax),%eax
  404236:	66 89 45 c0          	mov    %ax,-0x40(%rbp)
  40423a:	48 8b 45 88          	mov    -0x78(%rbp),%rax
  40423e:	48 8b 80 88 00 00 00 	mov    0x88(%rax),%rax
  404245:	0f b7 80 0a 02 00 00 	movzwl 0x20a(%rax),%eax
  40424c:	66 89 45 c0          	mov    %ax,-0x40(%rbp)
  404250:	48 8b 45 88          	mov    -0x78(%rbp),%rax
  404254:	48 8b 80 88 00 00 00 	mov    0x88(%rax),%rax
  40425b:	c7 80 70 03 00 00 01 	movl   $0x1,0x370(%rax)
  404262:	00 00 00 
  404265:	48 8b 45 e8          	mov    -0x18(%rbp),%rax
  404269:	48 8b 50 30          	mov    0x30(%rax),%rdx
  40426d:	48 8b 45 88          	mov    -0x78(%rbp),%rax
  404271:	48 89 90 e8 00 00 00 	mov    %rdx,0xe8(%rax)
  404278:	48 8b 45 e8          	mov    -0x18(%rbp),%rax
  40427c:	48 8b 50 38          	mov    0x38(%rax),%rdx
  404280:	48 8b 45 88          	mov    -0x78(%rbp),%rax
  404284:	48 89 90 f0 00 00 00 	mov    %rdx,0xf0(%rax)
  40428b:	48 8b 45 e8          	mov    -0x18(%rbp),%rax
  40428f:	48 8b 50 40          	mov    0x40(%rax),%rdx
  404293:	48 8b 45 88          	mov    -0x78(%rbp),%rax
  404297:	48 89 90 f8 00 00 00 	mov    %rdx,0xf8(%rax)
  40429e:	48 8b 45 e8          	mov    -0x18(%rbp),%rax
  4042a2:	48 8b 50 48          	mov    0x48(%rax),%rdx
  4042a6:	48 8b 45 88          	mov    -0x78(%rbp),%rax
  4042aa:	48 89 90 30 01 00 00 	mov    %rdx,0x130(%rax)
  4042b1:	48 8b 45 88          	mov    -0x78(%rbp),%rax
  4042b5:	48 8b 80 88 00 00 00 	mov    0x88(%rax),%rax
  4042bc:	48 8b 55 e8          	mov    -0x18(%rbp),%rdx
  4042c0:	0f b7 52 50          	movzwl 0x50(%rdx),%edx
  4042c4:	66 89 90 0a 02 00 00 	mov    %dx,0x20a(%rax)
  4042cb:	48 8b 45 e8          	mov    -0x18(%rbp),%rax
  4042cf:	0f b7 40 50          	movzwl 0x50(%rax),%eax
  4042d3:	0f b7 c0             	movzwl %ax,%eax
  4042d6:	0f b7 55 c0          	movzwl -0x40(%rbp),%edx
  4042da:	0f b7 d2             	movzwl %dx,%edx
  4042dd:	83 ea 01             	sub    $0x1,%edx
  4042e0:	39 d0                	cmp    %edx,%eax
  4042e2:	75 44                	jne    404328 <dtls1_retransmit_message+0x2a2>
  4042e4:	48 8b 45 88          	mov    -0x78(%rbp),%rax
  4042e8:	48 8b 80 80 00 00 00 	mov    0x80(%rax),%rax
  4042ef:	48 8b 40 58          	mov    0x58(%rax),%rax
  4042f3:	48 89 45 90          	mov    %rax,-0x70(%rbp)
  4042f7:	48 8b 45 88          	mov    -0x78(%rbp),%rax
  4042fb:	48 8b 80 88 00 00 00 	mov    0x88(%rax),%rax
  404302:	48 8d 88 36 02 00 00 	lea    0x236(%rax),%rcx
  404309:	48 8b 45 88          	mov    -0x78(%rbp),%rax
  40430d:	48 8b 80 80 00 00 00 	mov    0x80(%rax),%rax
  404314:	48 83 c0 58          	add    $0x58,%rax
  404318:	ba 08 00 00 00       	mov    $0x8,%edx
  40431d:	48 89 ce             	mov    %rcx,%rsi
  404320:	48 89 c7             	mov    %rax,%rdi
  404323:	e8 f8 d2 ff ff       	callq  401620 <memcpy@plt>
  404328:	48 8b 45 e8          	mov    -0x18(%rbp),%rax
  40432c:	8b 40 28             	mov    0x28(%rax),%eax
  40432f:	85 c0                	test   %eax,%eax
  404331:	74 07                	je     40433a <dtls1_retransmit_message+0x2b4>
  404333:	b8 14 00 00 00       	mov    $0x14,%eax
  404338:	eb 05                	jmp    40433f <dtls1_retransmit_message+0x2b9>
  40433a:	b8 16 00 00 00       	mov    $0x16,%eax
  40433f:	48 8b 55 88          	mov    -0x78(%rbp),%rdx
  404343:	89 c6                	mov    %eax,%esi
  404345:	48 89 d7             	mov    %rdx,%rdi
  404348:	e8 51 d7 ff ff       	callq  401a9e <dtls1_do_write>
  40434d:	89 45 e4             	mov    %eax,-0x1c(%rbp)
  404350:	48 8b 55 a0          	mov    -0x60(%rbp),%rdx
  404354:	48 8b 45 88          	mov    -0x78(%rbp),%rax
  404358:	48 89 90 e8 00 00 00 	mov    %rdx,0xe8(%rax)
  40435f:	48 8b 55 a8          	mov    -0x58(%rbp),%rdx
  404363:	48 8b 45 88          	mov    -0x78(%rbp),%rax
  404367:	48 89 90 f0 00 00 00 	mov    %rdx,0xf0(%rax)
  40436e:	48 8b 55 b0          	mov    -0x50(%rbp),%rdx
  404372:	48 8b 45 88          	mov    -0x78(%rbp),%rax
  404376:	48 89 90 f8 00 00 00 	mov    %rdx,0xf8(%rax)
  40437d:	48 8b 55 b8          	mov    -0x48(%rbp),%rdx
  404381:	48 8b 45 88          	mov    -0x78(%rbp),%rax
  404385:	48 89 90 30 01 00 00 	mov    %rdx,0x130(%rax)
  40438c:	48 8b 45 88          	mov    -0x78(%rbp),%rax
  404390:	48 8b 80 88 00 00 00 	mov    0x88(%rax),%rax
  404397:	0f b7 55 c0          	movzwl -0x40(%rbp),%edx
  40439b:	66 89 90 0a 02 00 00 	mov    %dx,0x20a(%rax)
  4043a2:	48 8b 45 e8          	mov    -0x18(%rbp),%rax
  4043a6:	0f b7 40 50          	movzwl 0x50(%rax),%eax
  4043aa:	0f b7 c0             	movzwl %ax,%eax
  4043ad:	0f b7 55 c0          	movzwl -0x40(%rbp),%edx
  4043b1:	0f b7 d2             	movzwl %dx,%edx
  4043b4:	83 ea 01             	sub    $0x1,%edx
  4043b7:	39 d0                	cmp    %edx,%eax
  4043b9:	75 46                	jne    404401 <dtls1_retransmit_message+0x37b>
  4043bb:	48 8b 45 88          	mov    -0x78(%rbp),%rax
  4043bf:	48 8b 80 80 00 00 00 	mov    0x80(%rax),%rax
  4043c6:	48 8d 48 58          	lea    0x58(%rax),%rcx
  4043ca:	48 8b 45 88          	mov    -0x78(%rbp),%rax
  4043ce:	48 8b 80 88 00 00 00 	mov    0x88(%rax),%rax
  4043d5:	48 05 36 02 00 00    	add    $0x236,%rax
  4043db:	ba 08 00 00 00       	mov    $0x8,%edx
  4043e0:	48 89 ce             	mov    %rcx,%rsi
  4043e3:	48 89 c7             	mov    %rax,%rdi
  4043e6:	e8 35 d2 ff ff       	callq  401620 <memcpy@plt>
  4043eb:	48 8b 45 88          	mov    -0x78(%rbp),%rax
  4043ef:	48 8b 80 80 00 00 00 	mov    0x80(%rax),%rax
  4043f6:	48 8d 50 58          	lea    0x58(%rax),%rdx
  4043fa:	48 8b 45 90          	mov    -0x70(%rbp),%rax
  4043fe:	48 89 02             	mov    %rax,(%rdx)
  404401:	48 8b 45 88          	mov    -0x78(%rbp),%rax
  404405:	48 8b 80 88 00 00 00 	mov    0x88(%rax),%rax
  40440c:	c7 80 70 03 00 00 00 	movl   $0x0,0x370(%rax)
  404413:	00 00 00 
  404416:	48 8b 45 88          	mov    -0x78(%rbp),%rax
  40441a:	48 89 c7             	mov    %rax,%rdi
  40441d:	e8 8e d1 ff ff       	callq  4015b0 <SSL_get_wbio@plt>
  404422:	b9 00 00 00 00       	mov    $0x0,%ecx
  404427:	ba 00 00 00 00       	mov    $0x0,%edx
  40442c:	be 0b 00 00 00       	mov    $0xb,%esi
  404431:	48 89 c7             	mov    %rax,%rdi
  404434:	e8 07 d1 ff ff       	callq  401540 <BIO_ctrl@plt>
  404439:	8b 45 e4             	mov    -0x1c(%rbp),%eax
  40443c:	c9                   	leaveq 
  40443d:	c3                   	retq   

000000000040443e <dtls1_clear_record_buffer>:
  40443e:	55                   	push   %rbp
  40443f:	48 89 e5             	mov    %rsp,%rbp
  404442:	48 83 ec 20          	sub    $0x20,%rsp
  404446:	48 89 7d e8          	mov    %rdi,-0x18(%rbp)
  40444a:	48 8b 45 e8          	mov    -0x18(%rbp),%rax
  40444e:	48 8b 80 88 00 00 00 	mov    0x88(%rax),%rax
  404455:	48 8b 80 68 02 00 00 	mov    0x268(%rax),%rax
  40445c:	48 89 c7             	mov    %rax,%rdi
  40445f:	e8 dc d2 ff ff       	callq  401740 <pqueue_pop@plt>
  404464:	48 89 45 f8          	mov    %rax,-0x8(%rbp)
  404468:	eb 3a                	jmp    4044a4 <dtls1_clear_record_buffer+0x66>
  40446a:	48 8b 45 f8          	mov    -0x8(%rbp),%rax
  40446e:	48 8b 40 08          	mov    0x8(%rax),%rax
  404472:	48 89 c7             	mov    %rax,%rdi
  404475:	e8 a5 d5 ff ff       	callq  401a1f <dtls1_hm_fragment_free>
  40447a:	48 8b 45 f8          	mov    -0x8(%rbp),%rax
  40447e:	48 89 c7             	mov    %rax,%rdi
  404481:	e8 da d1 ff ff       	callq  401660 <pitem_free@plt>
  404486:	48 8b 45 e8          	mov    -0x18(%rbp),%rax
  40448a:	48 8b 80 88 00 00 00 	mov    0x88(%rax),%rax
  404491:	48 8b 80 68 02 00 00 	mov    0x268(%rax),%rax
  404498:	48 89 c7             	mov    %rax,%rdi
  40449b:	e8 a0 d2 ff ff       	callq  401740 <pqueue_pop@plt>
  4044a0:	48 89 45 f8          	mov    %rax,-0x8(%rbp)
  4044a4:	48 83 7d f8 00       	cmpq   $0x0,-0x8(%rbp)
  4044a9:	75 bf                	jne    40446a <dtls1_clear_record_buffer+0x2c>
  4044ab:	c9                   	leaveq 
  4044ac:	c3                   	retq   

00000000004044ad <dtls1_set_message_header>:
  4044ad:	55                   	push   %rbp
  4044ae:	48 89 e5             	mov    %rsp,%rbp
  4044b1:	48 83 ec 30          	sub    $0x30,%rsp
  4044b5:	48 89 7d f8          	mov    %rdi,-0x8(%rbp)
  4044b9:	48 89 75 f0          	mov    %rsi,-0x10(%rbp)
  4044bd:	89 d0                	mov    %edx,%eax
  4044bf:	48 89 4d e0          	mov    %rcx,-0x20(%rbp)
  4044c3:	4c 89 45 d8          	mov    %r8,-0x28(%rbp)
  4044c7:	4c 89 4d d0          	mov    %r9,-0x30(%rbp)
  4044cb:	88 45 ec             	mov    %al,-0x14(%rbp)
  4044ce:	48 83 7d d8 00       	cmpq   $0x0,-0x28(%rbp)
  4044d3:	75 55                	jne    40452a <dtls1_set_message_header+0x7d>
  4044d5:	48 8b 45 f8          	mov    -0x8(%rbp),%rax
  4044d9:	48 8b 80 88 00 00 00 	mov    0x88(%rax),%rax
  4044e0:	8b 80 78 03 00 00    	mov    0x378(%rax),%eax
  4044e6:	85 c0                	test   %eax,%eax
  4044e8:	75 40                	jne    40452a <dtls1_set_message_header+0x7d>
  4044ea:	48 8b 45 f8          	mov    -0x8(%rbp),%rax
  4044ee:	48 8b 80 88 00 00 00 	mov    0x88(%rax),%rax
  4044f5:	48 8b 55 f8          	mov    -0x8(%rbp),%rdx
  4044f9:	48 8b 92 88 00 00 00 	mov    0x88(%rdx),%rdx
  404500:	0f b7 92 32 02 00 00 	movzwl 0x232(%rdx),%edx
  404507:	66 89 90 30 02 00 00 	mov    %dx,0x230(%rax)
  40450e:	48 8b 45 f8          	mov    -0x8(%rbp),%rax
  404512:	48 8b 80 88 00 00 00 	mov    0x88(%rax),%rax
  404519:	0f b7 90 32 02 00 00 	movzwl 0x232(%rax),%edx
  404520:	83 c2 01             	add    $0x1,%edx
  404523:	66 89 90 32 02 00 00 	mov    %dx,0x232(%rax)
  40452a:	48 8b 45 f8          	mov    -0x8(%rbp),%rax
  40452e:	48 8b 80 88 00 00 00 	mov    0x88(%rax),%rax
  404535:	0f b7 80 30 02 00 00 	movzwl 0x230(%rax),%eax
  40453c:	0f b7 c8             	movzwl %ax,%ecx
  40453f:	0f b6 75 ec          	movzbl -0x14(%rbp),%esi
  404543:	4c 8b 45 d0          	mov    -0x30(%rbp),%r8
  404547:	48 8b 7d d8          	mov    -0x28(%rbp),%rdi
  40454b:	48 8b 55 e0          	mov    -0x20(%rbp),%rdx
  40454f:	48 8b 45 f8          	mov    -0x8(%rbp),%rax
  404553:	4d 89 c1             	mov    %r8,%r9
  404556:	49 89 f8             	mov    %rdi,%r8
  404559:	48 89 c7             	mov    %rax,%rdi
  40455c:	e8 0b 00 00 00       	callq  40456c <dtls1_set_message_header_int>
  404561:	48 83 45 f0 0c       	addq   $0xc,-0x10(%rbp)
  404566:	48 8b 45 f0          	mov    -0x10(%rbp),%rax
  40456a:	c9                   	leaveq 
  40456b:	c3                   	retq   

000000000040456c <dtls1_set_message_header_int>:
  40456c:	55                   	push   %rbp
  40456d:	48 89 e5             	mov    %rsp,%rbp
  404570:	48 89 7d e8          	mov    %rdi,-0x18(%rbp)
  404574:	48 89 55 d8          	mov    %rdx,-0x28(%rbp)
  404578:	89 c8                	mov    %ecx,%eax
  40457a:	4c 89 45 d0          	mov    %r8,-0x30(%rbp)
  40457e:	4c 89 4d c8          	mov    %r9,-0x38(%rbp)
  404582:	40 88 75 e4          	mov    %sil,-0x1c(%rbp)
  404586:	66 89 45 e0          	mov    %ax,-0x20(%rbp)
  40458a:	48 8b 45 e8          	mov    -0x18(%rbp),%rax
  40458e:	48 8b 80 88 00 00 00 	mov    0x88(%rax),%rax
  404595:	48 05 88 02 00 00    	add    $0x288,%rax
  40459b:	48 89 45 f8          	mov    %rax,-0x8(%rbp)
  40459f:	48 8b 45 f8          	mov    -0x8(%rbp),%rax
  4045a3:	0f b6 55 e4          	movzbl -0x1c(%rbp),%edx
  4045a7:	88 10                	mov    %dl,(%rax)
  4045a9:	48 8b 45 f8          	mov    -0x8(%rbp),%rax
  4045ad:	48 8b 55 d8          	mov    -0x28(%rbp),%rdx
  4045b1:	48 89 50 08          	mov    %rdx,0x8(%rax)
  4045b5:	48 8b 45 f8          	mov    -0x8(%rbp),%rax
  4045b9:	0f b7 55 e0          	movzwl -0x20(%rbp),%edx
  4045bd:	66 89 50 10          	mov    %dx,0x10(%rax)
  4045c1:	48 8b 45 f8          	mov    -0x8(%rbp),%rax
  4045c5:	48 8b 55 d0          	mov    -0x30(%rbp),%rdx
  4045c9:	48 89 50 18          	mov    %rdx,0x18(%rax)
  4045cd:	48 8b 45 f8          	mov    -0x8(%rbp),%rax
  4045d1:	48 8b 55 c8          	mov    -0x38(%rbp),%rdx
  4045d5:	48 89 50 20          	mov    %rdx,0x20(%rax)
  4045d9:	5d                   	pop    %rbp
  4045da:	c3                   	retq   

00000000004045db <dtls1_fix_message_header>:
  4045db:	55                   	push   %rbp
  4045dc:	48 89 e5             	mov    %rsp,%rbp
  4045df:	48 89 7d e8          	mov    %rdi,-0x18(%rbp)
  4045e3:	48 89 75 e0          	mov    %rsi,-0x20(%rbp)
  4045e7:	48 89 55 d8          	mov    %rdx,-0x28(%rbp)
  4045eb:	48 8b 45 e8          	mov    -0x18(%rbp),%rax
  4045ef:	48 8b 80 88 00 00 00 	mov    0x88(%rax),%rax
  4045f6:	48 05 88 02 00 00    	add    $0x288,%rax
  4045fc:	48 89 45 f8          	mov    %rax,-0x8(%rbp)
  404600:	48 8b 45 f8          	mov    -0x8(%rbp),%rax
  404604:	48 8b 55 e0          	mov    -0x20(%rbp),%rdx
  404608:	48 89 50 18          	mov    %rdx,0x18(%rax)
  40460c:	48 8b 45 f8          	mov    -0x8(%rbp),%rax
  404610:	48 8b 55 d8          	mov    -0x28(%rbp),%rdx
  404614:	48 89 50 20          	mov    %rdx,0x20(%rax)
  404618:	5d                   	pop    %rbp
  404619:	c3                   	retq   

000000000040461a <dtls1_write_message_header>:
  40461a:	55                   	push   %rbp
  40461b:	48 89 e5             	mov    %rsp,%rbp
  40461e:	48 89 7d e8          	mov    %rdi,-0x18(%rbp)
  404622:	48 89 75 e0          	mov    %rsi,-0x20(%rbp)
  404626:	48 8b 45 e8          	mov    -0x18(%rbp),%rax
  40462a:	48 8b 80 88 00 00 00 	mov    0x88(%rax),%rax
  404631:	48 05 88 02 00 00    	add    $0x288,%rax
  404637:	48 89 45 f8          	mov    %rax,-0x8(%rbp)
  40463b:	48 8b 45 e0          	mov    -0x20(%rbp),%rax
  40463f:	48 8d 50 01          	lea    0x1(%rax),%rdx
  404643:	48 89 55 e0          	mov    %rdx,-0x20(%rbp)
  404647:	48 8b 55 f8          	mov    -0x8(%rbp),%rdx
  40464b:	0f b6 12             	movzbl (%rdx),%edx
  40464e:	88 10                	mov    %dl,(%rax)
  404650:	48 8b 45 f8          	mov    -0x8(%rbp),%rax
  404654:	48 8b 40 08          	mov    0x8(%rax),%rax
  404658:	48 c1 e8 10          	shr    $0x10,%rax
  40465c:	89 c2                	mov    %eax,%edx
  40465e:	48 8b 45 e0          	mov    -0x20(%rbp),%rax
  404662:	88 10                	mov    %dl,(%rax)
  404664:	48 8b 45 e0          	mov    -0x20(%rbp),%rax
  404668:	48 8d 50 01          	lea    0x1(%rax),%rdx
  40466c:	48 8b 45 f8          	mov    -0x8(%rbp),%rax
  404670:	48 8b 40 08          	mov    0x8(%rax),%rax
  404674:	48 c1 e8 08          	shr    $0x8,%rax
  404678:	88 02                	mov    %al,(%rdx)
  40467a:	48 8b 45 e0          	mov    -0x20(%rbp),%rax
  40467e:	48 8d 50 02          	lea    0x2(%rax),%rdx
  404682:	48 8b 45 f8          	mov    -0x8(%rbp),%rax
  404686:	48 8b 40 08          	mov    0x8(%rax),%rax
  40468a:	88 02                	mov    %al,(%rdx)
  40468c:	48 83 45 e0 03       	addq   $0x3,-0x20(%rbp)
  404691:	48 8b 45 f8          	mov    -0x8(%rbp),%rax
  404695:	0f b7 40 10          	movzwl 0x10(%rax),%eax
  404699:	66 c1 e8 08          	shr    $0x8,%ax
  40469d:	89 c2                	mov    %eax,%edx
  40469f:	48 8b 45 e0          	mov    -0x20(%rbp),%rax
  4046a3:	88 10                	mov    %dl,(%rax)
  4046a5:	48 8b 45 e0          	mov    -0x20(%rbp),%rax
  4046a9:	48 8d 50 01          	lea    0x1(%rax),%rdx
  4046ad:	48 8b 45 f8          	mov    -0x8(%rbp),%rax
  4046b1:	0f b7 40 10          	movzwl 0x10(%rax),%eax
  4046b5:	88 02                	mov    %al,(%rdx)
  4046b7:	48 83 45 e0 02       	addq   $0x2,-0x20(%rbp)
  4046bc:	48 8b 45 f8          	mov    -0x8(%rbp),%rax
  4046c0:	48 8b 40 18          	mov    0x18(%rax),%rax
  4046c4:	48 c1 e8 10          	shr    $0x10,%rax
  4046c8:	89 c2                	mov    %eax,%edx
  4046ca:	48 8b 45 e0          	mov    -0x20(%rbp),%rax
  4046ce:	88 10                	mov    %dl,(%rax)
  4046d0:	48 8b 45 e0          	mov    -0x20(%rbp),%rax
  4046d4:	48 8d 50 01          	lea    0x1(%rax),%rdx
  4046d8:	48 8b 45 f8          	mov    -0x8(%rbp),%rax
  4046dc:	48 8b 40 18          	mov    0x18(%rax),%rax
  4046e0:	48 c1 e8 08          	shr    $0x8,%rax
  4046e4:	88 02                	mov    %al,(%rdx)
  4046e6:	48 8b 45 e0          	mov    -0x20(%rbp),%rax
  4046ea:	48 8d 50 02          	lea    0x2(%rax),%rdx
  4046ee:	48 8b 45 f8          	mov    -0x8(%rbp),%rax
  4046f2:	48 8b 40 18          	mov    0x18(%rax),%rax
  4046f6:	88 02                	mov    %al,(%rdx)
  4046f8:	48 83 45 e0 03       	addq   $0x3,-0x20(%rbp)
  4046fd:	48 8b 45 f8          	mov    -0x8(%rbp),%rax
  404701:	48 8b 40 20          	mov    0x20(%rax),%rax
  404705:	48 c1 e8 10          	shr    $0x10,%rax
  404709:	89 c2                	mov    %eax,%edx
  40470b:	48 8b 45 e0          	mov    -0x20(%rbp),%rax
  40470f:	88 10                	mov    %dl,(%rax)
  404711:	48 8b 45 e0          	mov    -0x20(%rbp),%rax
  404715:	48 8d 50 01          	lea    0x1(%rax),%rdx
  404719:	48 8b 45 f8          	mov    -0x8(%rbp),%rax
  40471d:	48 8b 40 20          	mov    0x20(%rax),%rax
  404721:	48 c1 e8 08          	shr    $0x8,%rax
  404725:	88 02                	mov    %al,(%rdx)
  404727:	48 8b 45 e0          	mov    -0x20(%rbp),%rax
  40472b:	48 8d 50 02          	lea    0x2(%rax),%rdx
  40472f:	48 8b 45 f8          	mov    -0x8(%rbp),%rax
  404733:	48 8b 40 20          	mov    0x20(%rax),%rax
  404737:	88 02                	mov    %al,(%rdx)
  404739:	48 83 45 e0 03       	addq   $0x3,-0x20(%rbp)
  40473e:	48 8b 45 e0          	mov    -0x20(%rbp),%rax
  404742:	5d                   	pop    %rbp
  404743:	c3                   	retq   

0000000000404744 <dtls1_min_mtu>:
  404744:	55                   	push   %rbp
  404745:	48 89 e5             	mov    %rsp,%rbp
  404748:	8b 05 5e 1a 20 00    	mov    0x201a5e(%rip),%eax        # 6061ac <g_probable_mtu+0x8>
  40474e:	5d                   	pop    %rbp
  40474f:	c3                   	retq   

0000000000404750 <dtls1_guess_mtu>:
  404750:	55                   	push   %rbp
  404751:	48 89 e5             	mov    %rsp,%rbp
  404754:	89 7d ec             	mov    %edi,-0x14(%rbp)
  404757:	83 7d ec 00          	cmpl   $0x0,-0x14(%rbp)
  40475b:	75 08                	jne    404765 <dtls1_guess_mtu+0x15>
  40475d:	8b 05 41 1a 20 00    	mov    0x201a41(%rip),%eax        # 6061a4 <g_probable_mtu>
  404763:	eb 31                	jmp    404796 <dtls1_guess_mtu+0x46>
  404765:	c7 45 fc 00 00 00 00 	movl   $0x0,-0x4(%rbp)
  40476c:	eb 1f                	jmp    40478d <dtls1_guess_mtu+0x3d>
  40476e:	8b 45 fc             	mov    -0x4(%rbp),%eax
  404771:	8b 04 85 a4 61 60 00 	mov    0x6061a4(,%rax,4),%eax
  404778:	3b 45 ec             	cmp    -0x14(%rbp),%eax
  40477b:	73 0c                	jae    404789 <dtls1_guess_mtu+0x39>
  40477d:	8b 45 fc             	mov    -0x4(%rbp),%eax
  404780:	8b 04 85 a4 61 60 00 	mov    0x6061a4(,%rax,4),%eax
  404787:	eb 0d                	jmp    404796 <dtls1_guess_mtu+0x46>
  404789:	83 45 fc 01          	addl   $0x1,-0x4(%rbp)
  40478d:	83 7d fc 02          	cmpl   $0x2,-0x4(%rbp)
  404791:	76 db                	jbe    40476e <dtls1_guess_mtu+0x1e>
  404793:	8b 45 ec             	mov    -0x14(%rbp),%eax
  404796:	5d                   	pop    %rbp
  404797:	c3                   	retq   

0000000000404798 <dtls1_get_message_header>:
  404798:	55                   	push   %rbp
  404799:	48 89 e5             	mov    %rsp,%rbp
  40479c:	48 83 ec 10          	sub    $0x10,%rsp
  4047a0:	48 89 7d f8          	mov    %rdi,-0x8(%rbp)
  4047a4:	48 89 75 f0          	mov    %rsi,-0x10(%rbp)
  4047a8:	48 8b 45 f0          	mov    -0x10(%rbp),%rax
  4047ac:	ba 58 00 00 00       	mov    $0x58,%edx
  4047b1:	be 00 00 00 00       	mov    $0x0,%esi
  4047b6:	48 89 c7             	mov    %rax,%rdi
  4047b9:	e8 d2 cd ff ff       	callq  401590 <memset@plt>
  4047be:	48 8b 45 f8          	mov    -0x8(%rbp),%rax
  4047c2:	48 8d 50 01          	lea    0x1(%rax),%rdx
  4047c6:	48 89 55 f8          	mov    %rdx,-0x8(%rbp)
  4047ca:	0f b6 10             	movzbl (%rax),%edx
  4047cd:	48 8b 45 f0          	mov    -0x10(%rbp),%rax
  4047d1:	88 10                	mov    %dl,(%rax)
  4047d3:	48 8b 45 f8          	mov    -0x8(%rbp),%rax
  4047d7:	0f b6 00             	movzbl (%rax),%eax
  4047da:	0f b6 c0             	movzbl %al,%eax
  4047dd:	48 c1 e0 10          	shl    $0x10,%rax
  4047e1:	48 89 c2             	mov    %rax,%rdx
  4047e4:	48 8b 45 f8          	mov    -0x8(%rbp),%rax
  4047e8:	48 83 c0 01          	add    $0x1,%rax
  4047ec:	0f b6 00             	movzbl (%rax),%eax
  4047ef:	0f b6 c0             	movzbl %al,%eax
  4047f2:	48 c1 e0 08          	shl    $0x8,%rax
  4047f6:	48 09 c2             	or     %rax,%rdx
  4047f9:	48 8b 45 f8          	mov    -0x8(%rbp),%rax
  4047fd:	48 83 c0 02          	add    $0x2,%rax
  404801:	0f b6 00             	movzbl (%rax),%eax
  404804:	0f b6 c0             	movzbl %al,%eax
  404807:	48 09 c2             	or     %rax,%rdx
  40480a:	48 8b 45 f0          	mov    -0x10(%rbp),%rax
  40480e:	48 89 50 08          	mov    %rdx,0x8(%rax)
  404812:	48 83 45 f8 03       	addq   $0x3,-0x8(%rbp)
  404817:	48 8b 45 f8          	mov    -0x8(%rbp),%rax
  40481b:	0f b6 00             	movzbl (%rax),%eax
  40481e:	0f b6 c0             	movzbl %al,%eax
  404821:	c1 e0 08             	shl    $0x8,%eax
  404824:	89 c2                	mov    %eax,%edx
  404826:	48 8b 45 f8          	mov    -0x8(%rbp),%rax
  40482a:	48 83 c0 01          	add    $0x1,%rax
  40482e:	0f b6 00             	movzbl (%rax),%eax
  404831:	0f b6 c0             	movzbl %al,%eax
  404834:	09 c2                	or     %eax,%edx
  404836:	48 8b 45 f0          	mov    -0x10(%rbp),%rax
  40483a:	66 89 50 10          	mov    %dx,0x10(%rax)
  40483e:	48 83 45 f8 02       	addq   $0x2,-0x8(%rbp)
  404843:	48 8b 45 f8          	mov    -0x8(%rbp),%rax
  404847:	0f b6 00             	movzbl (%rax),%eax
  40484a:	0f b6 c0             	movzbl %al,%eax
  40484d:	48 c1 e0 10          	shl    $0x10,%rax
  404851:	48 89 c2             	mov    %rax,%rdx
  404854:	48 8b 45 f8          	mov    -0x8(%rbp),%rax
  404858:	48 83 c0 01          	add    $0x1,%rax
  40485c:	0f b6 00             	movzbl (%rax),%eax
  40485f:	0f b6 c0             	movzbl %al,%eax
  404862:	48 c1 e0 08          	shl    $0x8,%rax
  404866:	48 09 c2             	or     %rax,%rdx
  404869:	48 8b 45 f8          	mov    -0x8(%rbp),%rax
  40486d:	48 83 c0 02          	add    $0x2,%rax
  404871:	0f b6 00             	movzbl (%rax),%eax
  404874:	0f b6 c0             	movzbl %al,%eax
  404877:	48 09 c2             	or     %rax,%rdx
  40487a:	48 8b 45 f0          	mov    -0x10(%rbp),%rax
  40487e:	48 89 50 18          	mov    %rdx,0x18(%rax)
  404882:	48 83 45 f8 03       	addq   $0x3,-0x8(%rbp)
  404887:	48 8b 45 f8          	mov    -0x8(%rbp),%rax
  40488b:	0f b6 00             	movzbl (%rax),%eax
  40488e:	0f b6 c0             	movzbl %al,%eax
  404891:	48 c1 e0 10          	shl    $0x10,%rax
  404895:	48 89 c2             	mov    %rax,%rdx
  404898:	48 8b 45 f8          	mov    -0x8(%rbp),%rax
  40489c:	48 83 c0 01          	add    $0x1,%rax
  4048a0:	0f b6 00             	movzbl (%rax),%eax
  4048a3:	0f b6 c0             	movzbl %al,%eax
  4048a6:	48 c1 e0 08          	shl    $0x8,%rax
  4048aa:	48 09 c2             	or     %rax,%rdx
  4048ad:	48 8b 45 f8          	mov    -0x8(%rbp),%rax
  4048b1:	48 83 c0 02          	add    $0x2,%rax
  4048b5:	0f b6 00             	movzbl (%rax),%eax
  4048b8:	0f b6 c0             	movzbl %al,%eax
  4048bb:	48 09 c2             	or     %rax,%rdx
  4048be:	48 8b 45 f0          	mov    -0x10(%rbp),%rax
  4048c2:	48 89 50 20          	mov    %rdx,0x20(%rax)
  4048c6:	48 83 45 f8 03       	addq   $0x3,-0x8(%rbp)
  4048cb:	c9                   	leaveq 
  4048cc:	c3                   	retq   

00000000004048cd <dtls1_get_ccs_header>:
  4048cd:	55                   	push   %rbp
  4048ce:	48 89 e5             	mov    %rsp,%rbp
  4048d1:	48 83 ec 10          	sub    $0x10,%rsp
  4048d5:	48 89 7d f8          	mov    %rdi,-0x8(%rbp)
  4048d9:	48 89 75 f0          	mov    %rsi,-0x10(%rbp)
  4048dd:	48 8b 45 f0          	mov    -0x10(%rbp),%rax
  4048e1:	ba 04 00 00 00       	mov    $0x4,%edx
  4048e6:	be 00 00 00 00       	mov    $0x0,%esi
  4048eb:	48 89 c7             	mov    %rax,%rdi
  4048ee:	e8 9d cc ff ff       	callq  401590 <memset@plt>
  4048f3:	48 8b 45 f8          	mov    -0x8(%rbp),%rax
  4048f7:	48 8d 50 01          	lea    0x1(%rax),%rdx
  4048fb:	48 89 55 f8          	mov    %rdx,-0x8(%rbp)
  4048ff:	0f b6 10             	movzbl (%rax),%edx
  404902:	48 8b 45 f0          	mov    -0x10(%rbp),%rax
  404906:	88 10                	mov    %dl,(%rax)
  404908:	c9                   	leaveq 
  404909:	c3                   	retq   

000000000040490a <dtls1_shutdown>:
  40490a:	55                   	push   %rbp
  40490b:	48 89 e5             	mov    %rsp,%rbp
  40490e:	48 83 ec 20          	sub    $0x20,%rsp
  404912:	48 89 7d e8          	mov    %rdi,-0x18(%rbp)
  404916:	48 8b 45 e8          	mov    -0x18(%rbp),%rax
  40491a:	48 89 c7             	mov    %rax,%rdi
  40491d:	e8 be ce ff ff       	callq  4017e0 <ssl3_shutdown@plt>
  404922:	89 45 fc             	mov    %eax,-0x4(%rbp)
  404925:	8b 45 fc             	mov    -0x4(%rbp),%eax
  404928:	c9                   	leaveq 
  404929:	c3                   	retq   

000000000040492a <dtls1_process_heartbeat>:
  40492a:	55                   	push   %rbp
  40492b:	48 89 e5             	mov    %rsp,%rbp
  40492e:	48 83 ec 50          	sub    $0x50,%rsp
  404932:	48 89 7d b8          	mov    %rdi,-0x48(%rbp)
  404936:	48 8b 45 b8          	mov    -0x48(%rbp),%rax
  40493a:	48 8b 80 80 00 00 00 	mov    0x80(%rax),%rax
  404941:	48 8b 80 30 01 00 00 	mov    0x130(%rax),%rax
  404948:	48 89 45 f8          	mov    %rax,-0x8(%rbp)
  40494c:	c7 45 f4 10 00 00 00 	movl   $0x10,-0xc(%rbp)
  404953:	48 8b 45 f8          	mov    -0x8(%rbp),%rax
  404957:	48 8d 50 01          	lea    0x1(%rax),%rdx
  40495b:	48 89 55 f8          	mov    %rdx,-0x8(%rbp)
  40495f:	0f b6 00             	movzbl (%rax),%eax
  404962:	0f b6 c0             	movzbl %al,%eax
  404965:	66 89 45 f2          	mov    %ax,-0xe(%rbp)
  404969:	48 8b 45 f8          	mov    -0x8(%rbp),%rax
  40496d:	0f b6 00             	movzbl (%rax),%eax
  404970:	0f b6 c0             	movzbl %al,%eax
  404973:	c1 e0 08             	shl    $0x8,%eax
  404976:	89 c2                	mov    %eax,%edx
  404978:	48 8b 45 f8          	mov    -0x8(%rbp),%rax
  40497c:	48 83 c0 01          	add    $0x1,%rax
  404980:	0f b6 00             	movzbl (%rax),%eax
  404983:	0f b6 c0             	movzbl %al,%eax
  404986:	09 d0                	or     %edx,%eax
  404988:	89 45 ec             	mov    %eax,-0x14(%rbp)
  40498b:	48 83 45 f8 02       	addq   $0x2,-0x8(%rbp)
  404990:	48 8b 45 f8          	mov    -0x8(%rbp),%rax
  404994:	48 89 45 e0          	mov    %rax,-0x20(%rbp)
  404998:	48 8b 45 b8          	mov    -0x48(%rbp),%rax
  40499c:	48 8b 80 98 00 00 00 	mov    0x98(%rax),%rax
  4049a3:	48 85 c0             	test   %rax,%rax
  4049a6:	74 5e                	je     404a06 <dtls1_process_heartbeat+0xdc>
  4049a8:	48 8b 45 b8          	mov    -0x48(%rbp),%rax
  4049ac:	48 8b 80 98 00 00 00 	mov    0x98(%rax),%rax
  4049b3:	48 8b 55 b8          	mov    -0x48(%rbp),%rdx
  4049b7:	48 8b 8a a0 00 00 00 	mov    0xa0(%rdx),%rcx
  4049be:	48 8b 55 b8          	mov    -0x48(%rbp),%rdx
  4049c2:	48 8b 92 80 00 00 00 	mov    0x80(%rdx),%rdx
  4049c9:	8b 92 24 01 00 00    	mov    0x124(%rdx),%edx
  4049cf:	89 d7                	mov    %edx,%edi
  4049d1:	48 8b 55 b8          	mov    -0x48(%rbp),%rdx
  4049d5:	48 8b 92 80 00 00 00 	mov    0x80(%rdx),%rdx
  4049dc:	48 8b 92 30 01 00 00 	mov    0x130(%rdx),%rdx
  4049e3:	48 8b 75 b8          	mov    -0x48(%rbp),%rsi
  4049e7:	8b 36                	mov    (%rsi),%esi
  4049e9:	4c 8b 45 b8          	mov    -0x48(%rbp),%r8
  4049ed:	48 89 0c 24          	mov    %rcx,(%rsp)
  4049f1:	4d 89 c1             	mov    %r8,%r9
  4049f4:	49 89 f8             	mov    %rdi,%r8
  4049f7:	48 89 d1             	mov    %rdx,%rcx
  4049fa:	ba 18 00 00 00       	mov    $0x18,%edx
  4049ff:	bf 00 00 00 00       	mov    $0x0,%edi
  404a04:	ff d0                	callq  *%rax
  404a06:	66 83 7d f2 01       	cmpw   $0x1,-0xe(%rbp)
  404a0b:	0f 85 23 01 00 00    	jne    404b34 <dtls1_process_heartbeat+0x20a>
  404a11:	8b 45 f4             	mov    -0xc(%rbp),%eax
  404a14:	8b 55 ec             	mov    -0x14(%rbp),%edx
  404a17:	01 d0                	add    %edx,%eax
  404a19:	83 c0 03             	add    $0x3,%eax
  404a1c:	ba c9 05 00 00       	mov    $0x5c9,%edx
  404a21:	be b0 4e 40 00       	mov    $0x404eb0,%esi
  404a26:	89 c7                	mov    %eax,%edi
  404a28:	e8 93 cb ff ff       	callq  4015c0 <CRYPTO_malloc@plt>
  404a2d:	48 89 45 d8          	mov    %rax,-0x28(%rbp)
  404a31:	48 8b 45 d8          	mov    -0x28(%rbp),%rax
  404a35:	48 89 45 d0          	mov    %rax,-0x30(%rbp)
  404a39:	48 8b 45 d0          	mov    -0x30(%rbp),%rax
  404a3d:	48 8d 50 01          	lea    0x1(%rax),%rdx
  404a41:	48 89 55 d0          	mov    %rdx,-0x30(%rbp)
  404a45:	c6 00 02             	movb   $0x2,(%rax)
  404a48:	8b 45 ec             	mov    -0x14(%rbp),%eax
  404a4b:	c1 e8 08             	shr    $0x8,%eax
  404a4e:	89 c2                	mov    %eax,%edx
  404a50:	48 8b 45 d0          	mov    -0x30(%rbp),%rax
  404a54:	88 10                	mov    %dl,(%rax)
  404a56:	48 8b 45 d0          	mov    -0x30(%rbp),%rax
  404a5a:	48 8d 50 01          	lea    0x1(%rax),%rdx
  404a5e:	8b 45 ec             	mov    -0x14(%rbp),%eax
  404a61:	88 02                	mov    %al,(%rdx)
  404a63:	48 83 45 d0 02       	addq   $0x2,-0x30(%rbp)
  404a68:	8b 55 ec             	mov    -0x14(%rbp),%edx
  404a6b:	48 8b 4d e0          	mov    -0x20(%rbp),%rcx
  404a6f:	48 8b 45 d0          	mov    -0x30(%rbp),%rax
  404a73:	48 89 ce             	mov    %rcx,%rsi
  404a76:	48 89 c7             	mov    %rax,%rdi
  404a79:	e8 a2 cb ff ff       	callq  401620 <memcpy@plt>
  404a7e:	8b 45 ec             	mov    -0x14(%rbp),%eax
  404a81:	48 01 45 d0          	add    %rax,-0x30(%rbp)
  404a85:	8b 55 f4             	mov    -0xc(%rbp),%edx
  404a88:	48 8b 45 d0          	mov    -0x30(%rbp),%rax
  404a8c:	89 d6                	mov    %edx,%esi
  404a8e:	48 89 c7             	mov    %rax,%rdi
  404a91:	e8 6a cc ff ff       	callq  401700 <RAND_pseudo_bytes@plt>
  404a96:	8b 45 f4             	mov    -0xc(%rbp),%eax
  404a99:	8b 55 ec             	mov    -0x14(%rbp),%edx
  404a9c:	01 d0                	add    %edx,%eax
  404a9e:	83 c0 03             	add    $0x3,%eax
  404aa1:	89 c1                	mov    %eax,%ecx
  404aa3:	48 8b 55 d8          	mov    -0x28(%rbp),%rdx
  404aa7:	48 8b 45 b8          	mov    -0x48(%rbp),%rax
  404aab:	be 18 00 00 00       	mov    $0x18,%esi
  404ab0:	48 89 c7             	mov    %rax,%rdi
  404ab3:	e8 48 cb ff ff       	callq  401600 <dtls1_write_bytes@plt>
  404ab8:	89 45 cc             	mov    %eax,-0x34(%rbp)
  404abb:	83 7d cc 00          	cmpl   $0x0,-0x34(%rbp)
  404abf:	78 5a                	js     404b1b <dtls1_process_heartbeat+0x1f1>
  404ac1:	48 8b 45 b8          	mov    -0x48(%rbp),%rax
  404ac5:	48 8b 80 98 00 00 00 	mov    0x98(%rax),%rax
  404acc:	48 85 c0             	test   %rax,%rax
  404acf:	74 4a                	je     404b1b <dtls1_process_heartbeat+0x1f1>
  404ad1:	48 8b 45 b8          	mov    -0x48(%rbp),%rax
  404ad5:	48 8b 80 98 00 00 00 	mov    0x98(%rax),%rax
  404adc:	48 8b 55 b8          	mov    -0x48(%rbp),%rdx
  404ae0:	48 8b 8a a0 00 00 00 	mov    0xa0(%rdx),%rcx
  404ae7:	8b 55 f4             	mov    -0xc(%rbp),%edx
  404aea:	8b 75 ec             	mov    -0x14(%rbp),%esi
  404aed:	01 f2                	add    %esi,%edx
  404aef:	83 c2 03             	add    $0x3,%edx
  404af2:	89 d7                	mov    %edx,%edi
  404af4:	48 8b 55 b8          	mov    -0x48(%rbp),%rdx
  404af8:	8b 32                	mov    (%rdx),%esi
  404afa:	4c 8b 45 b8          	mov    -0x48(%rbp),%r8
  404afe:	48 8b 55 d8          	mov    -0x28(%rbp),%rdx
  404b02:	48 89 0c 24          	mov    %rcx,(%rsp)
  404b06:	4d 89 c1             	mov    %r8,%r9
  404b09:	49 89 f8             	mov    %rdi,%r8
  404b0c:	48 89 d1             	mov    %rdx,%rcx
  404b0f:	ba 18 00 00 00       	mov    $0x18,%edx
  404b14:	bf 01 00 00 00       	mov    $0x1,%edi
  404b19:	ff d0                	callq  *%rax
  404b1b:	48 8b 45 d8          	mov    -0x28(%rbp),%rax
  404b1f:	48 89 c7             	mov    %rax,%rdi
  404b22:	e8 99 cb ff ff       	callq  4016c0 <CRYPTO_free@plt>
  404b27:	83 7d cc 00          	cmpl   $0x0,-0x34(%rbp)
  404b2b:	79 05                	jns    404b32 <dtls1_process_heartbeat+0x208>
  404b2d:	8b 45 cc             	mov    -0x34(%rbp),%eax
  404b30:	eb 7b                	jmp    404bad <dtls1_process_heartbeat+0x283>
  404b32:	eb 74                	jmp    404ba8 <dtls1_process_heartbeat+0x27e>
  404b34:	66 83 7d f2 02       	cmpw   $0x2,-0xe(%rbp)
  404b39:	75 6d                	jne    404ba8 <dtls1_process_heartbeat+0x27e>
  404b3b:	48 8b 45 e0          	mov    -0x20(%rbp),%rax
  404b3f:	0f b6 00             	movzbl (%rax),%eax
  404b42:	0f b6 c0             	movzbl %al,%eax
  404b45:	c1 e0 08             	shl    $0x8,%eax
  404b48:	89 c2                	mov    %eax,%edx
  404b4a:	48 8b 45 e0          	mov    -0x20(%rbp),%rax
  404b4e:	48 83 c0 01          	add    $0x1,%rax
  404b52:	0f b6 00             	movzbl (%rax),%eax
  404b55:	0f b6 c0             	movzbl %al,%eax
  404b58:	09 d0                	or     %edx,%eax
  404b5a:	89 45 c8             	mov    %eax,-0x38(%rbp)
  404b5d:	48 83 45 e0 02       	addq   $0x2,-0x20(%rbp)
  404b62:	83 7d ec 12          	cmpl   $0x12,-0x14(%rbp)
  404b66:	75 40                	jne    404ba8 <dtls1_process_heartbeat+0x27e>
  404b68:	48 8b 45 b8          	mov    -0x48(%rbp),%rax
  404b6c:	8b 80 a8 02 00 00    	mov    0x2a8(%rax),%eax
  404b72:	3b 45 c8             	cmp    -0x38(%rbp),%eax
  404b75:	75 31                	jne    404ba8 <dtls1_process_heartbeat+0x27e>
  404b77:	48 8b 45 b8          	mov    -0x48(%rbp),%rax
  404b7b:	48 89 c7             	mov    %rax,%rdi
  404b7e:	e8 2d cb ff ff       	callq  4016b0 <dtls1_stop_timer@plt>
  404b83:	48 8b 45 b8          	mov    -0x48(%rbp),%rax
  404b87:	8b 80 a8 02 00 00    	mov    0x2a8(%rax),%eax
  404b8d:	8d 50 01             	lea    0x1(%rax),%edx
  404b90:	48 8b 45 b8          	mov    -0x48(%rbp),%rax
  404b94:	89 90 a8 02 00 00    	mov    %edx,0x2a8(%rax)
  404b9a:	48 8b 45 b8          	mov    -0x48(%rbp),%rax
  404b9e:	c7 80 a4 02 00 00 00 	movl   $0x0,0x2a4(%rax)
  404ba5:	00 00 00 
  404ba8:	b8 00 00 00 00       	mov    $0x0,%eax
  404bad:	c9                   	leaveq 
  404bae:	c3                   	retq   

0000000000404baf <dtls1_heartbeat>:
  404baf:	55                   	push   %rbp
  404bb0:	48 89 e5             	mov    %rsp,%rbp
  404bb3:	48 83 ec 30          	sub    $0x30,%rsp
  404bb7:	48 89 7d d8          	mov    %rdi,-0x28(%rbp)
  404bbb:	c7 45 fc 12 00 00 00 	movl   $0x12,-0x4(%rbp)
  404bc2:	c7 45 f8 10 00 00 00 	movl   $0x10,-0x8(%rbp)
  404bc9:	48 8b 45 d8          	mov    -0x28(%rbp),%rax
  404bcd:	8b 80 a0 02 00 00    	mov    0x2a0(%rax),%eax
  404bd3:	83 e0 01             	and    $0x1,%eax
  404bd6:	85 c0                	test   %eax,%eax
  404bd8:	74 11                	je     404beb <dtls1_heartbeat+0x3c>
  404bda:	48 8b 45 d8          	mov    -0x28(%rbp),%rax
  404bde:	8b 80 a0 02 00 00    	mov    0x2a0(%rax),%eax
  404be4:	83 e0 02             	and    $0x2,%eax
  404be7:	85 c0                	test   %eax,%eax
  404be9:	74 29                	je     404c14 <dtls1_heartbeat+0x65>
  404beb:	41 b8 00 06 00 00    	mov    $0x600,%r8d
  404bf1:	b9 b0 4e 40 00       	mov    $0x404eb0,%ecx
  404bf6:	ba 6d 01 00 00       	mov    $0x16d,%edx
  404bfb:	be 31 01 00 00       	mov    $0x131,%esi
  404c00:	bf 14 00 00 00       	mov    $0x14,%edi
  404c05:	e8 96 ca ff ff       	callq  4016a0 <ERR_put_error@plt>
  404c0a:	b8 ff ff ff ff       	mov    $0xffffffff,%eax
  404c0f:	e9 fd 01 00 00       	jmpq   404e11 <dtls1_heartbeat+0x262>
  404c14:	48 8b 45 d8          	mov    -0x28(%rbp),%rax
  404c18:	8b 80 a4 02 00 00    	mov    0x2a4(%rax),%eax
  404c1e:	85 c0                	test   %eax,%eax
  404c20:	74 29                	je     404c4b <dtls1_heartbeat+0x9c>
  404c22:	41 b8 07 06 00 00    	mov    $0x607,%r8d
  404c28:	b9 b0 4e 40 00       	mov    $0x404eb0,%ecx
  404c2d:	ba 6e 01 00 00       	mov    $0x16e,%edx
  404c32:	be 31 01 00 00       	mov    $0x131,%esi
  404c37:	bf 14 00 00 00       	mov    $0x14,%edi
  404c3c:	e8 5f ca ff ff       	callq  4016a0 <ERR_put_error@plt>
  404c41:	b8 ff ff ff ff       	mov    $0xffffffff,%eax
  404c46:	e9 c6 01 00 00       	jmpq   404e11 <dtls1_heartbeat+0x262>
  404c4b:	48 8b 45 d8          	mov    -0x28(%rbp),%rax
  404c4f:	48 89 c7             	mov    %rax,%rdi
  404c52:	e8 f9 ca ff ff       	callq  401750 <SSL_state@plt>
  404c57:	25 00 30 00 00       	and    $0x3000,%eax
  404c5c:	85 c0                	test   %eax,%eax
  404c5e:	75 0b                	jne    404c6b <dtls1_heartbeat+0xbc>
  404c60:	48 8b 45 d8          	mov    -0x28(%rbp),%rax
  404c64:	8b 40 2c             	mov    0x2c(%rax),%eax
  404c67:	85 c0                	test   %eax,%eax
  404c69:	74 29                	je     404c94 <dtls1_heartbeat+0xe5>
  404c6b:	41 b8 0e 06 00 00    	mov    $0x60e,%r8d
  404c71:	b9 b0 4e 40 00       	mov    $0x404eb0,%ecx
  404c76:	ba f4 00 00 00       	mov    $0xf4,%edx
  404c7b:	be 31 01 00 00       	mov    $0x131,%esi
  404c80:	bf 14 00 00 00       	mov    $0x14,%edi
  404c85:	e8 16 ca ff ff       	callq  4016a0 <ERR_put_error@plt>
  404c8a:	b8 ff ff ff ff       	mov    $0xffffffff,%eax
  404c8f:	e9 7d 01 00 00       	jmpq   404e11 <dtls1_heartbeat+0x262>
  404c94:	8b 45 f8             	mov    -0x8(%rbp),%eax
  404c97:	8b 55 fc             	mov    -0x4(%rbp),%edx
  404c9a:	01 d0                	add    %edx,%eax
  404c9c:	3d fd 3f 00 00       	cmp    $0x3ffd,%eax
  404ca1:	76 14                	jbe    404cb7 <dtls1_heartbeat+0x108>
  404ca3:	ba ee 50 40 00       	mov    $0x4050ee,%edx
  404ca8:	be 15 06 00 00       	mov    $0x615,%esi
  404cad:	bf b0 4e 40 00       	mov    $0x404eb0,%edi
  404cb2:	e8 99 c9 ff ff       	callq  401650 <OpenSSLDie@plt>
  404cb7:	8b 45 f8             	mov    -0x8(%rbp),%eax
  404cba:	8b 55 fc             	mov    -0x4(%rbp),%edx
  404cbd:	01 d0                	add    %edx,%eax
  404cbf:	83 c0 03             	add    $0x3,%eax
  404cc2:	ba 20 06 00 00       	mov    $0x620,%edx
  404cc7:	be b0 4e 40 00       	mov    $0x404eb0,%esi
  404ccc:	89 c7                	mov    %eax,%edi
  404cce:	e8 ed c8 ff ff       	callq  4015c0 <CRYPTO_malloc@plt>
  404cd3:	48 89 45 f0          	mov    %rax,-0x10(%rbp)
  404cd7:	48 8b 45 f0          	mov    -0x10(%rbp),%rax
  404cdb:	48 89 45 e8          	mov    %rax,-0x18(%rbp)
  404cdf:	48 8b 45 e8          	mov    -0x18(%rbp),%rax
  404ce3:	48 8d 50 01          	lea    0x1(%rax),%rdx
  404ce7:	48 89 55 e8          	mov    %rdx,-0x18(%rbp)
  404ceb:	c6 00 01             	movb   $0x1,(%rax)
  404cee:	8b 45 fc             	mov    -0x4(%rbp),%eax
  404cf1:	c1 e8 08             	shr    $0x8,%eax
  404cf4:	89 c2                	mov    %eax,%edx
  404cf6:	48 8b 45 e8          	mov    -0x18(%rbp),%rax
  404cfa:	88 10                	mov    %dl,(%rax)
  404cfc:	48 8b 45 e8          	mov    -0x18(%rbp),%rax
  404d00:	48 8d 50 01          	lea    0x1(%rax),%rdx
  404d04:	8b 45 fc             	mov    -0x4(%rbp),%eax
  404d07:	88 02                	mov    %al,(%rdx)
  404d09:	48 83 45 e8 02       	addq   $0x2,-0x18(%rbp)
  404d0e:	48 8b 45 d8          	mov    -0x28(%rbp),%rax
  404d12:	8b 80 a8 02 00 00    	mov    0x2a8(%rax),%eax
  404d18:	c1 e8 08             	shr    $0x8,%eax
  404d1b:	89 c2                	mov    %eax,%edx
  404d1d:	48 8b 45 e8          	mov    -0x18(%rbp),%rax
  404d21:	88 10                	mov    %dl,(%rax)
  404d23:	48 8b 45 e8          	mov    -0x18(%rbp),%rax
  404d27:	48 8d 50 01          	lea    0x1(%rax),%rdx
  404d2b:	48 8b 45 d8          	mov    -0x28(%rbp),%rax
  404d2f:	8b 80 a8 02 00 00    	mov    0x2a8(%rax),%eax
  404d35:	88 02                	mov    %al,(%rdx)
  404d37:	48 83 45 e8 02       	addq   $0x2,-0x18(%rbp)
  404d3c:	48 8b 45 e8          	mov    -0x18(%rbp),%rax
  404d40:	be 10 00 00 00       	mov    $0x10,%esi
  404d45:	48 89 c7             	mov    %rax,%rdi
  404d48:	e8 b3 c9 ff ff       	callq  401700 <RAND_pseudo_bytes@plt>
  404d4d:	48 83 45 e8 10       	addq   $0x10,-0x18(%rbp)
  404d52:	8b 55 f8             	mov    -0x8(%rbp),%edx
  404d55:	48 8b 45 e8          	mov    -0x18(%rbp),%rax
  404d59:	89 d6                	mov    %edx,%esi
  404d5b:	48 89 c7             	mov    %rax,%rdi
  404d5e:	e8 9d c9 ff ff       	callq  401700 <RAND_pseudo_bytes@plt>
  404d63:	8b 45 f8             	mov    -0x8(%rbp),%eax
  404d66:	8b 55 fc             	mov    -0x4(%rbp),%edx
  404d69:	01 d0                	add    %edx,%eax
  404d6b:	83 c0 03             	add    $0x3,%eax
  404d6e:	89 c1                	mov    %eax,%ecx
  404d70:	48 8b 55 f0          	mov    -0x10(%rbp),%rdx
  404d74:	48 8b 45 d8          	mov    -0x28(%rbp),%rax
  404d78:	be 18 00 00 00       	mov    $0x18,%esi
  404d7d:	48 89 c7             	mov    %rax,%rdi
  404d80:	e8 7b c8 ff ff       	callq  401600 <dtls1_write_bytes@plt>
  404d85:	89 45 e4             	mov    %eax,-0x1c(%rbp)
  404d88:	83 7d e4 00          	cmpl   $0x0,-0x1c(%rbp)
  404d8c:	78 74                	js     404e02 <dtls1_heartbeat+0x253>
  404d8e:	48 8b 45 d8          	mov    -0x28(%rbp),%rax
  404d92:	48 8b 80 98 00 00 00 	mov    0x98(%rax),%rax
  404d99:	48 85 c0             	test   %rax,%rax
  404d9c:	74 4a                	je     404de8 <dtls1_heartbeat+0x239>
  404d9e:	48 8b 45 d8          	mov    -0x28(%rbp),%rax
  404da2:	48 8b 80 98 00 00 00 	mov    0x98(%rax),%rax
  404da9:	48 8b 55 d8          	mov    -0x28(%rbp),%rdx
  404dad:	48 8b 8a a0 00 00 00 	mov    0xa0(%rdx),%rcx
  404db4:	8b 55 f8             	mov    -0x8(%rbp),%edx
  404db7:	8b 75 fc             	mov    -0x4(%rbp),%esi
  404dba:	01 f2                	add    %esi,%edx
  404dbc:	83 c2 03             	add    $0x3,%edx
  404dbf:	89 d7                	mov    %edx,%edi
  404dc1:	48 8b 55 d8          	mov    -0x28(%rbp),%rdx
  404dc5:	8b 32                	mov    (%rdx),%esi
  404dc7:	4c 8b 45 d8          	mov    -0x28(%rbp),%r8
  404dcb:	48 8b 55 f0          	mov    -0x10(%rbp),%rdx
  404dcf:	48 89 0c 24          	mov    %rcx,(%rsp)
  404dd3:	4d 89 c1             	mov    %r8,%r9
  404dd6:	49 89 f8             	mov    %rdi,%r8
  404dd9:	48 89 d1             	mov    %rdx,%rcx
  404ddc:	ba 18 00 00 00       	mov    $0x18,%edx
  404de1:	bf 01 00 00 00       	mov    $0x1,%edi
  404de6:	ff d0                	callq  *%rax
  404de8:	48 8b 45 d8          	mov    -0x28(%rbp),%rax
  404dec:	48 89 c7             	mov    %rax,%rdi
  404def:	e8 1c c8 ff ff       	callq  401610 <dtls1_start_timer@plt>
  404df4:	48 8b 45 d8          	mov    -0x28(%rbp),%rax
  404df8:	c7 80 a4 02 00 00 01 	movl   $0x1,0x2a4(%rax)
  404dff:	00 00 00 
  404e02:	48 8b 45 f0          	mov    -0x10(%rbp),%rax
  404e06:	48 89 c7             	mov    %rax,%rdi
  404e09:	e8 b2 c8 ff ff       	callq  4016c0 <CRYPTO_free@plt>
  404e0e:	8b 45 e4             	mov    -0x1c(%rbp),%eax
  404e11:	c9                   	leaveq 
  404e12:	c3                   	retq   

0000000000404e13 <main>:
  404e13:	55                   	push   %rbp
  404e14:	48 89 e5             	mov    %rsp,%rbp
  404e17:	b8 00 00 00 00       	mov    $0x0,%eax
  404e1c:	5d                   	pop    %rbp
  404e1d:	c3                   	retq   
  404e1e:	66 90                	xchg   %ax,%ax

0000000000404e20 <__libc_csu_init>:
  404e20:	41 57                	push   %r15
  404e22:	41 89 ff             	mov    %edi,%r15d
  404e25:	41 56                	push   %r14
  404e27:	49 89 f6             	mov    %rsi,%r14
  404e2a:	41 55                	push   %r13
  404e2c:	49 89 d5             	mov    %rdx,%r13
  404e2f:	41 54                	push   %r12
  404e31:	4c 8d 25 b8 0f 20 00 	lea    0x200fb8(%rip),%r12        # 605df0 <__frame_dummy_init_array_entry>
  404e38:	55                   	push   %rbp
  404e39:	48 8d 2d b8 0f 20 00 	lea    0x200fb8(%rip),%rbp        # 605df8 <__init_array_end>
  404e40:	53                   	push   %rbx
  404e41:	4c 29 e5             	sub    %r12,%rbp
  404e44:	31 db                	xor    %ebx,%ebx
  404e46:	48 c1 fd 03          	sar    $0x3,%rbp
  404e4a:	48 83 ec 08          	sub    $0x8,%rsp
  404e4e:	e8 9d c6 ff ff       	callq  4014f0 <_init>
  404e53:	48 85 ed             	test   %rbp,%rbp
  404e56:	74 1e                	je     404e76 <__libc_csu_init+0x56>
  404e58:	0f 1f 84 00 00 00 00 	nopl   0x0(%rax,%rax,1)
  404e5f:	00 
  404e60:	4c 89 ea             	mov    %r13,%rdx
  404e63:	4c 89 f6             	mov    %r14,%rsi
  404e66:	44 89 ff             	mov    %r15d,%edi
  404e69:	41 ff 14 dc          	callq  *(%r12,%rbx,8)
  404e6d:	48 83 c3 01          	add    $0x1,%rbx
  404e71:	48 39 eb             	cmp    %rbp,%rbx
  404e74:	75 ea                	jne    404e60 <__libc_csu_init+0x40>
  404e76:	48 83 c4 08          	add    $0x8,%rsp
  404e7a:	5b                   	pop    %rbx
  404e7b:	5d                   	pop    %rbp
  404e7c:	41 5c                	pop    %r12
  404e7e:	41 5d                	pop    %r13
  404e80:	41 5e                	pop    %r14
  404e82:	41 5f                	pop    %r15
  404e84:	c3                   	retq   
  404e85:	66 66 2e 0f 1f 84 00 	data32 nopw %cs:0x0(%rax,%rax,1)
  404e8c:	00 00 00 00 

0000000000404e90 <__libc_csu_fini>:
  404e90:	f3 c3                	repz retq 
  404e92:	66 90                	xchg   %ax,%ax

Disassembly of section .fini:

0000000000404e94 <_fini>:
  404e94:	48 83 ec 08          	sub    $0x8,%rsp
  404e98:	48 83 c4 08          	add    $0x8,%rsp
  404e9c:	c3                   	retq   
