
both5:     file format elf64-x86-64


Disassembly of section .text:

0000000000000000 <partStart>:
       0:	55                   	push   %rbp
       1:	48 89 e5             	mov    %rsp,%rbp
       4:	5d                   	pop    %rbp
       5:	c3                   	retq   

0000000000000006 <partEnd>:
       6:	55                   	push   %rbp
       7:	48 89 e5             	mov    %rsp,%rbp
       a:	5d                   	pop    %rbp
       b:	c3                   	retq   

000000000000000c <dtls1_hm_fragment_new>:
       c:	55                   	push   %rbp
       d:	48 89 e5             	mov    %rsp,%rbp
      10:	48 83 ec 30          	sub    $0x30,%rsp
      14:	48 89 7d d8          	mov    %rdi,-0x28(%rbp)
      18:	89 75 d4             	mov    %esi,-0x2c(%rbp)
      1b:	48 c7 45 e8 00 00 00 	movq   $0x0,-0x18(%rbp)
      22:	00 
      23:	48 c7 45 f8 00 00 00 	movq   $0x0,-0x8(%rbp)
      2a:	00 
      2b:	48 c7 45 f0 00 00 00 	movq   $0x0,-0x10(%rbp)
      32:	00 
      33:	ba b8 00 00 00       	mov    $0xb8,%edx
      38:	be 00 00 00 00       	mov    $0x0,%esi
      3d:	bf 68 00 00 00       	mov    $0x68,%edi
      42:	e8 00 00 00 00       	callq  47 <dtls1_hm_fragment_new+0x3b>
      47:	48 89 45 e8          	mov    %rax,-0x18(%rbp)
      4b:	48 83 7d e8 00       	cmpq   $0x0,-0x18(%rbp)
      50:	75 0a                	jne    5c <dtls1_hm_fragment_new+0x50>
      52:	b8 00 00 00 00       	mov    $0x0,%eax
      57:	e9 cd 00 00 00       	jmpq   129 <dtls1_hm_fragment_new+0x11d>
      5c:	48 83 7d d8 00       	cmpq   $0x0,-0x28(%rbp)
      61:	74 36                	je     99 <dtls1_hm_fragment_new+0x8d>
      63:	48 8b 45 d8          	mov    -0x28(%rbp),%rax
      67:	ba be 00 00 00       	mov    $0xbe,%edx
      6c:	be 00 00 00 00       	mov    $0x0,%esi
      71:	89 c7                	mov    %eax,%edi
      73:	e8 00 00 00 00       	callq  78 <dtls1_hm_fragment_new+0x6c>
      78:	48 89 45 f8          	mov    %rax,-0x8(%rbp)
      7c:	48 83 7d f8 00       	cmpq   $0x0,-0x8(%rbp)
      81:	75 16                	jne    99 <dtls1_hm_fragment_new+0x8d>
      83:	48 8b 45 e8          	mov    -0x18(%rbp),%rax
      87:	48 89 c7             	mov    %rax,%rdi
      8a:	e8 00 00 00 00       	callq  8f <dtls1_hm_fragment_new+0x83>
      8f:	b8 00 00 00 00       	mov    $0x0,%eax
      94:	e9 90 00 00 00       	jmpq   129 <dtls1_hm_fragment_new+0x11d>
      99:	48 8b 45 e8          	mov    -0x18(%rbp),%rax
      9d:	48 8b 55 f8          	mov    -0x8(%rbp),%rdx
      a1:	48 89 50 58          	mov    %rdx,0x58(%rax)
      a5:	83 7d d4 00          	cmpl   $0x0,-0x2c(%rbp)
      a9:	74 6e                	je     119 <dtls1_hm_fragment_new+0x10d>
      ab:	48 8b 45 d8          	mov    -0x28(%rbp),%rax
      af:	48 83 c0 07          	add    $0x7,%rax
      b3:	48 c1 e8 03          	shr    $0x3,%rax
      b7:	ba cc 00 00 00       	mov    $0xcc,%edx
      bc:	be 00 00 00 00       	mov    $0x0,%esi
      c1:	89 c7                	mov    %eax,%edi
      c3:	e8 00 00 00 00       	callq  c8 <dtls1_hm_fragment_new+0xbc>
      c8:	48 89 45 f0          	mov    %rax,-0x10(%rbp)
      cc:	48 83 7d f0 00       	cmpq   $0x0,-0x10(%rbp)
      d1:	75 26                	jne    f9 <dtls1_hm_fragment_new+0xed>
      d3:	48 83 7d f8 00       	cmpq   $0x0,-0x8(%rbp)
      d8:	74 0c                	je     e6 <dtls1_hm_fragment_new+0xda>
      da:	48 8b 45 f8          	mov    -0x8(%rbp),%rax
      de:	48 89 c7             	mov    %rax,%rdi
      e1:	e8 00 00 00 00       	callq  e6 <dtls1_hm_fragment_new+0xda>
      e6:	48 8b 45 e8          	mov    -0x18(%rbp),%rax
      ea:	48 89 c7             	mov    %rax,%rdi
      ed:	e8 00 00 00 00       	callq  f2 <dtls1_hm_fragment_new+0xe6>
      f2:	b8 00 00 00 00       	mov    $0x0,%eax
      f7:	eb 30                	jmp    129 <dtls1_hm_fragment_new+0x11d>
      f9:	48 8b 45 d8          	mov    -0x28(%rbp),%rax
      fd:	48 83 c0 07          	add    $0x7,%rax
     101:	48 c1 e8 03          	shr    $0x3,%rax
     105:	48 89 c2             	mov    %rax,%rdx
     108:	48 8b 45 f0          	mov    -0x10(%rbp),%rax
     10c:	be 00 00 00 00       	mov    $0x0,%esi
     111:	48 89 c7             	mov    %rax,%rdi
     114:	e8 00 00 00 00       	callq  119 <dtls1_hm_fragment_new+0x10d>
     119:	48 8b 45 e8          	mov    -0x18(%rbp),%rax
     11d:	48 8b 55 f0          	mov    -0x10(%rbp),%rdx
     121:	48 89 50 60          	mov    %rdx,0x60(%rax)
     125:	48 8b 45 e8          	mov    -0x18(%rbp),%rax
     129:	c9                   	leaveq 
     12a:	c3                   	retq   

000000000000012b <dtls1_hm_fragment_free>:
     12b:	55                   	push   %rbp
     12c:	48 89 e5             	mov    %rsp,%rbp
     12f:	48 83 ec 10          	sub    $0x10,%rsp
     133:	48 89 7d f8          	mov    %rdi,-0x8(%rbp)
     137:	48 8b 45 f8          	mov    -0x8(%rbp),%rax
     13b:	8b 40 28             	mov    0x28(%rax),%eax
     13e:	85 c0                	test   %eax,%eax
     140:	74 20                	je     162 <dtls1_hm_fragment_free+0x37>
     142:	48 8b 45 f8          	mov    -0x8(%rbp),%rax
     146:	48 8b 40 30          	mov    0x30(%rax),%rax
     14a:	48 89 c7             	mov    %rax,%rdi
     14d:	e8 00 00 00 00       	callq  152 <dtls1_hm_fragment_free+0x27>
     152:	48 8b 45 f8          	mov    -0x8(%rbp),%rax
     156:	48 8b 40 38          	mov    0x38(%rax),%rax
     15a:	48 89 c7             	mov    %rax,%rdi
     15d:	e8 00 00 00 00       	callq  162 <dtls1_hm_fragment_free+0x37>
     162:	48 8b 45 f8          	mov    -0x8(%rbp),%rax
     166:	48 8b 40 58          	mov    0x58(%rax),%rax
     16a:	48 85 c0             	test   %rax,%rax
     16d:	74 10                	je     17f <dtls1_hm_fragment_free+0x54>
     16f:	48 8b 45 f8          	mov    -0x8(%rbp),%rax
     173:	48 8b 40 58          	mov    0x58(%rax),%rax
     177:	48 89 c7             	mov    %rax,%rdi
     17a:	e8 00 00 00 00       	callq  17f <dtls1_hm_fragment_free+0x54>
     17f:	48 8b 45 f8          	mov    -0x8(%rbp),%rax
     183:	48 8b 40 60          	mov    0x60(%rax),%rax
     187:	48 85 c0             	test   %rax,%rax
     18a:	74 10                	je     19c <dtls1_hm_fragment_free+0x71>
     18c:	48 8b 45 f8          	mov    -0x8(%rbp),%rax
     190:	48 8b 40 60          	mov    0x60(%rax),%rax
     194:	48 89 c7             	mov    %rax,%rdi
     197:	e8 00 00 00 00       	callq  19c <dtls1_hm_fragment_free+0x71>
     19c:	48 8b 45 f8          	mov    -0x8(%rbp),%rax
     1a0:	48 89 c7             	mov    %rax,%rdi
     1a3:	e8 00 00 00 00       	callq  1a8 <dtls1_hm_fragment_free+0x7d>
     1a8:	c9                   	leaveq 
     1a9:	c3                   	retq   

00000000000001aa <dtls1_do_write>:
     1aa:	55                   	push   %rbp
     1ab:	48 89 e5             	mov    %rsp,%rbp
     1ae:	53                   	push   %rbx
     1af:	48 83 ec 58          	sub    $0x58,%rsp
     1b3:	48 89 7d b8          	mov    %rdi,-0x48(%rbp)
     1b7:	89 75 b4             	mov    %esi,-0x4c(%rbp)
     1ba:	48 8b 45 b8          	mov    -0x48(%rbp),%rax
     1be:	48 8b 80 88 00 00 00 	mov    0x88(%rax),%rax
     1c5:	8b 98 80 02 00 00    	mov    0x280(%rax),%ebx
     1cb:	e8 00 00 00 00       	callq  1d0 <dtls1_do_write+0x26>
     1d0:	39 c3                	cmp    %eax,%ebx
     1d2:	0f 83 e9 00 00 00    	jae    2c1 <dtls1_do_write+0x117>
     1d8:	48 8b 45 b8          	mov    -0x48(%rbp),%rax
     1dc:	b9 00 00 00 00       	mov    $0x0,%ecx
     1e1:	ba 00 00 00 00       	mov    $0x0,%edx
     1e6:	be 20 00 00 00       	mov    $0x20,%esi
     1eb:	48 89 c7             	mov    %rax,%rdi
     1ee:	e8 00 00 00 00       	callq  1f3 <dtls1_do_write+0x49>
     1f3:	25 00 10 00 00       	and    $0x1000,%eax
     1f8:	48 85 c0             	test   %rax,%rax
     1fb:	0f 85 c0 00 00 00    	jne    2c1 <dtls1_do_write+0x117>
     201:	48 8b 45 b8          	mov    -0x48(%rbp),%rax
     205:	48 8b 98 88 00 00 00 	mov    0x88(%rax),%rbx
     20c:	48 8b 45 b8          	mov    -0x48(%rbp),%rax
     210:	48 89 c7             	mov    %rax,%rdi
     213:	e8 00 00 00 00       	callq  218 <dtls1_do_write+0x6e>
     218:	b9 00 00 00 00       	mov    $0x0,%ecx
     21d:	ba 00 00 00 00       	mov    $0x0,%edx
     222:	be 28 00 00 00       	mov    $0x28,%esi
     227:	48 89 c7             	mov    %rax,%rdi
     22a:	e8 00 00 00 00       	callq  22f <dtls1_do_write+0x85>
     22f:	89 83 80 02 00 00    	mov    %eax,0x280(%rbx)
     235:	48 8b 45 b8          	mov    -0x48(%rbp),%rax
     239:	48 8b 80 88 00 00 00 	mov    0x88(%rax),%rax
     240:	8b 98 80 02 00 00    	mov    0x280(%rax),%ebx
     246:	e8 00 00 00 00       	callq  24b <dtls1_do_write+0xa1>
     24b:	39 c3                	cmp    %eax,%ebx
     24d:	73 72                	jae    2c1 <dtls1_do_write+0x117>
     24f:	48 8b 45 b8          	mov    -0x48(%rbp),%rax
     253:	48 8b 80 88 00 00 00 	mov    0x88(%rax),%rax
     25a:	c7 80 80 02 00 00 00 	movl   $0x0,0x280(%rax)
     261:	00 00 00 
     264:	48 8b 45 b8          	mov    -0x48(%rbp),%rax
     268:	48 8b 98 88 00 00 00 	mov    0x88(%rax),%rbx
     26f:	48 8b 45 b8          	mov    -0x48(%rbp),%rax
     273:	48 8b 80 88 00 00 00 	mov    0x88(%rax),%rax
     27a:	8b 80 80 02 00 00    	mov    0x280(%rax),%eax
     280:	89 c7                	mov    %eax,%edi
     282:	e8 d5 2b 00 00       	callq  2e5c <dtls1_guess_mtu>
     287:	89 83 80 02 00 00    	mov    %eax,0x280(%rbx)
     28d:	48 8b 45 b8          	mov    -0x48(%rbp),%rax
     291:	48 8b 80 88 00 00 00 	mov    0x88(%rax),%rax
     298:	8b 80 80 02 00 00    	mov    0x280(%rax),%eax
     29e:	89 c3                	mov    %eax,%ebx
     2a0:	48 8b 45 b8          	mov    -0x48(%rbp),%rax
     2a4:	48 89 c7             	mov    %rax,%rdi
     2a7:	e8 00 00 00 00       	callq  2ac <dtls1_do_write+0x102>
     2ac:	b9 00 00 00 00       	mov    $0x0,%ecx
     2b1:	48 89 da             	mov    %rbx,%rdx
     2b4:	be 2a 00 00 00       	mov    $0x2a,%esi
     2b9:	48 89 c7             	mov    %rax,%rdi
     2bc:	e8 00 00 00 00       	callq  2c1 <dtls1_do_write+0x117>
     2c1:	48 8b 45 b8          	mov    -0x48(%rbp),%rax
     2c5:	48 8b 80 88 00 00 00 	mov    0x88(%rax),%rax
     2cc:	8b 98 80 02 00 00    	mov    0x280(%rax),%ebx
     2d2:	e8 00 00 00 00       	callq  2d7 <dtls1_do_write+0x12d>
     2d7:	39 c3                	cmp    %eax,%ebx
     2d9:	73 14                	jae    2ef <dtls1_do_write+0x145>
     2db:	ba 00 00 00 00       	mov    $0x0,%edx
     2e0:	be 17 01 00 00       	mov    $0x117,%esi
     2e5:	bf 00 00 00 00       	mov    $0x0,%edi
     2ea:	e8 00 00 00 00       	callq  2ef <dtls1_do_write+0x145>
     2ef:	48 8b 45 b8          	mov    -0x48(%rbp),%rax
     2f3:	8b 40 64             	mov    0x64(%rax),%eax
     2f6:	85 c0                	test   %eax,%eax
     2f8:	75 3a                	jne    334 <dtls1_do_write+0x18a>
     2fa:	83 7d b4 16          	cmpl   $0x16,-0x4c(%rbp)
     2fe:	75 34                	jne    334 <dtls1_do_write+0x18a>
     300:	48 8b 45 b8          	mov    -0x48(%rbp),%rax
     304:	8b 50 60             	mov    0x60(%rax),%edx
     307:	48 8b 45 b8          	mov    -0x48(%rbp),%rax
     30b:	48 8b 80 88 00 00 00 	mov    0x88(%rax),%rax
     312:	48 8b 80 90 02 00 00 	mov    0x290(%rax),%rax
     319:	83 c0 0c             	add    $0xc,%eax
     31c:	39 c2                	cmp    %eax,%edx
     31e:	74 14                	je     334 <dtls1_do_write+0x18a>
     320:	ba 00 00 00 00       	mov    $0x0,%edx
     325:	be 1b 01 00 00       	mov    $0x11b,%esi
     32a:	bf 00 00 00 00       	mov    $0x0,%edi
     32f:	e8 00 00 00 00       	callq  334 <dtls1_do_write+0x18a>
     334:	48 8b 45 b8          	mov    -0x48(%rbp),%rax
     338:	48 8b 80 f0 00 00 00 	mov    0xf0(%rax),%rax
     33f:	48 85 c0             	test   %rax,%rax
     342:	74 20                	je     364 <dtls1_do_write+0x1ba>
     344:	48 8b 45 b8          	mov    -0x48(%rbp),%rax
     348:	48 8b 80 f0 00 00 00 	mov    0xf0(%rax),%rax
     34f:	48 89 c7             	mov    %rax,%rdi
     352:	e8 00 00 00 00       	callq  357 <dtls1_do_write+0x1ad>
     357:	48 89 c7             	mov    %rax,%rdi
     35a:	e8 00 00 00 00       	callq  35f <dtls1_do_write+0x1b5>
     35f:	89 45 e0             	mov    %eax,-0x20(%rbp)
     362:	eb 07                	jmp    36b <dtls1_do_write+0x1c1>
     364:	c7 45 e0 00 00 00 00 	movl   $0x0,-0x20(%rbp)
     36b:	48 8b 45 b8          	mov    -0x48(%rbp),%rax
     36f:	48 8b 80 e8 00 00 00 	mov    0xe8(%rax),%rax
     376:	48 85 c0             	test   %rax,%rax
     379:	74 3b                	je     3b6 <dtls1_do_write+0x20c>
     37b:	48 8b 45 b8          	mov    -0x48(%rbp),%rax
     37f:	48 8b 80 e8 00 00 00 	mov    0xe8(%rax),%rax
     386:	48 8b 00             	mov    (%rax),%rax
     389:	48 89 c7             	mov    %rax,%rdi
     38c:	e8 00 00 00 00       	callq  391 <dtls1_do_write+0x1e7>
     391:	83 e0 02             	and    $0x2,%eax
     394:	48 85 c0             	test   %rax,%rax
     397:	74 1d                	je     3b6 <dtls1_do_write+0x20c>
     399:	48 8b 45 b8          	mov    -0x48(%rbp),%rax
     39d:	48 8b 80 e8 00 00 00 	mov    0xe8(%rax),%rax
     3a4:	48 8b 00             	mov    (%rax),%rax
     3a7:	48 89 c7             	mov    %rax,%rdi
     3aa:	e8 00 00 00 00       	callq  3af <dtls1_do_write+0x205>
     3af:	01 c0                	add    %eax,%eax
     3b1:	89 45 dc             	mov    %eax,-0x24(%rbp)
     3b4:	eb 07                	jmp    3bd <dtls1_do_write+0x213>
     3b6:	c7 45 dc 00 00 00 00 	movl   $0x0,-0x24(%rbp)
     3bd:	c7 45 e4 00 00 00 00 	movl   $0x0,-0x1c(%rbp)
     3c4:	e9 83 04 00 00       	jmpq   84c <dtls1_do_write+0x6a2>
     3c9:	48 8b 45 b8          	mov    -0x48(%rbp),%rax
     3cd:	48 8b 80 88 00 00 00 	mov    0x88(%rax),%rax
     3d4:	8b 98 80 02 00 00    	mov    0x280(%rax),%ebx
     3da:	48 8b 45 b8          	mov    -0x48(%rbp),%rax
     3de:	48 89 c7             	mov    %rax,%rdi
     3e1:	e8 00 00 00 00       	callq  3e6 <dtls1_do_write+0x23c>
     3e6:	b9 00 00 00 00       	mov    $0x0,%ecx
     3eb:	ba 00 00 00 00       	mov    $0x0,%edx
     3f0:	be 0d 00 00 00       	mov    $0xd,%esi
     3f5:	48 89 c7             	mov    %rax,%rdi
     3f8:	e8 00 00 00 00       	callq  3fd <dtls1_do_write+0x253>
     3fd:	29 c3                	sub    %eax,%ebx
     3ff:	89 d8                	mov    %ebx,%eax
     401:	2b 45 e0             	sub    -0x20(%rbp),%eax
     404:	2b 45 dc             	sub    -0x24(%rbp),%eax
     407:	83 e8 0d             	sub    $0xd,%eax
     40a:	89 45 ec             	mov    %eax,-0x14(%rbp)
     40d:	83 7d ec 0c          	cmpl   $0xc,-0x14(%rbp)
     411:	7f 51                	jg     464 <dtls1_do_write+0x2ba>
     413:	48 8b 45 b8          	mov    -0x48(%rbp),%rax
     417:	48 89 c7             	mov    %rax,%rdi
     41a:	e8 00 00 00 00       	callq  41f <dtls1_do_write+0x275>
     41f:	b9 00 00 00 00       	mov    $0x0,%ecx
     424:	ba 00 00 00 00       	mov    $0x0,%edx
     429:	be 0b 00 00 00       	mov    $0xb,%esi
     42e:	48 89 c7             	mov    %rax,%rdi
     431:	e8 00 00 00 00       	callq  436 <dtls1_do_write+0x28c>
     436:	89 45 c8             	mov    %eax,-0x38(%rbp)
     439:	83 7d c8 00          	cmpl   $0x0,-0x38(%rbp)
     43d:	7f 08                	jg     447 <dtls1_do_write+0x29d>
     43f:	8b 45 c8             	mov    -0x38(%rbp),%eax
     442:	e9 19 04 00 00       	jmpq   860 <dtls1_do_write+0x6b6>
     447:	48 8b 45 b8          	mov    -0x48(%rbp),%rax
     44b:	48 8b 80 88 00 00 00 	mov    0x88(%rax),%rax
     452:	8b 80 80 02 00 00    	mov    0x280(%rax),%eax
     458:	2b 45 e0             	sub    -0x20(%rbp),%eax
     45b:	2b 45 dc             	sub    -0x24(%rbp),%eax
     45e:	83 e8 0d             	sub    $0xd,%eax
     461:	89 45 ec             	mov    %eax,-0x14(%rbp)
     464:	48 8b 45 b8          	mov    -0x48(%rbp),%rax
     468:	8b 40 60             	mov    0x60(%rax),%eax
     46b:	3b 45 ec             	cmp    -0x14(%rbp),%eax
     46e:	7e 08                	jle    478 <dtls1_do_write+0x2ce>
     470:	8b 45 ec             	mov    -0x14(%rbp),%eax
     473:	89 45 e8             	mov    %eax,-0x18(%rbp)
     476:	eb 0a                	jmp    482 <dtls1_do_write+0x2d8>
     478:	48 8b 45 b8          	mov    -0x48(%rbp),%rax
     47c:	8b 40 60             	mov    0x60(%rax),%eax
     47f:	89 45 e8             	mov    %eax,-0x18(%rbp)
     482:	83 7d b4 16          	cmpl   $0x16,-0x4c(%rbp)
     486:	0f 85 c6 00 00 00    	jne    552 <dtls1_do_write+0x3a8>
     48c:	48 8b 45 b8          	mov    -0x48(%rbp),%rax
     490:	8b 40 64             	mov    0x64(%rax),%eax
     493:	85 c0                	test   %eax,%eax
     495:	74 60                	je     4f7 <dtls1_do_write+0x34d>
     497:	48 8b 45 b8          	mov    -0x48(%rbp),%rax
     49b:	8b 40 64             	mov    0x64(%rax),%eax
     49e:	83 f8 0c             	cmp    $0xc,%eax
     4a1:	7f 14                	jg     4b7 <dtls1_do_write+0x30d>
     4a3:	ba 00 00 00 00       	mov    $0x0,%edx
     4a8:	be 43 01 00 00       	mov    $0x143,%esi
     4ad:	bf 00 00 00 00       	mov    $0x0,%edi
     4b2:	e8 00 00 00 00       	callq  4b7 <dtls1_do_write+0x30d>
     4b7:	48 8b 45 b8          	mov    -0x48(%rbp),%rax
     4bb:	8b 40 64             	mov    0x64(%rax),%eax
     4be:	8d 50 f4             	lea    -0xc(%rax),%edx
     4c1:	48 8b 45 b8          	mov    -0x48(%rbp),%rax
     4c5:	89 50 64             	mov    %edx,0x64(%rax)
     4c8:	48 8b 45 b8          	mov    -0x48(%rbp),%rax
     4cc:	8b 40 60             	mov    0x60(%rax),%eax
     4cf:	8d 50 0c             	lea    0xc(%rax),%edx
     4d2:	48 8b 45 b8          	mov    -0x48(%rbp),%rax
     4d6:	89 50 60             	mov    %edx,0x60(%rax)
     4d9:	48 8b 45 b8          	mov    -0x48(%rbp),%rax
     4dd:	8b 40 60             	mov    0x60(%rax),%eax
     4e0:	3b 45 ec             	cmp    -0x14(%rbp),%eax
     4e3:	7e 08                	jle    4ed <dtls1_do_write+0x343>
     4e5:	8b 45 ec             	mov    -0x14(%rbp),%eax
     4e8:	89 45 e8             	mov    %eax,-0x18(%rbp)
     4eb:	eb 0a                	jmp    4f7 <dtls1_do_write+0x34d>
     4ed:	48 8b 45 b8          	mov    -0x48(%rbp),%rax
     4f1:	8b 40 60             	mov    0x60(%rax),%eax
     4f4:	89 45 e8             	mov    %eax,-0x18(%rbp)
     4f7:	8b 45 e8             	mov    -0x18(%rbp),%eax
     4fa:	83 e8 0c             	sub    $0xc,%eax
     4fd:	89 c2                	mov    %eax,%edx
     4ff:	8b 4d e4             	mov    -0x1c(%rbp),%ecx
     502:	48 8b 45 b8          	mov    -0x48(%rbp),%rax
     506:	48 89 ce             	mov    %rcx,%rsi
     509:	48 89 c7             	mov    %rax,%rdi
     50c:	e8 d6 27 00 00       	callq  2ce7 <dtls1_fix_message_header>
     511:	48 8b 45 b8          	mov    -0x48(%rbp),%rax
     515:	48 8b 40 50          	mov    0x50(%rax),%rax
     519:	48 8b 50 08          	mov    0x8(%rax),%rdx
     51d:	48 8b 45 b8          	mov    -0x48(%rbp),%rax
     521:	8b 40 64             	mov    0x64(%rax),%eax
     524:	48 98                	cltq   
     526:	48 01 c2             	add    %rax,%rdx
     529:	48 8b 45 b8          	mov    -0x48(%rbp),%rax
     52d:	48 89 d6             	mov    %rdx,%rsi
     530:	48 89 c7             	mov    %rax,%rdi
     533:	e8 ee 27 00 00       	callq  2d26 <dtls1_write_message_header>
     538:	83 7d e8 0b          	cmpl   $0xb,-0x18(%rbp)
     53c:	77 14                	ja     552 <dtls1_do_write+0x3a8>
     53e:	ba 00 00 00 00       	mov    $0x0,%edx
     543:	be 52 01 00 00       	mov    $0x152,%esi
     548:	bf 00 00 00 00       	mov    $0x0,%edi
     54d:	e8 00 00 00 00       	callq  552 <dtls1_do_write+0x3a8>
     552:	8b 55 e8             	mov    -0x18(%rbp),%edx
     555:	48 8b 45 b8          	mov    -0x48(%rbp),%rax
     559:	48 8b 40 50          	mov    0x50(%rax),%rax
     55d:	48 8b 48 08          	mov    0x8(%rax),%rcx
     561:	48 8b 45 b8          	mov    -0x48(%rbp),%rax
     565:	8b 40 64             	mov    0x64(%rax),%eax
     568:	48 98                	cltq   
     56a:	48 8d 3c 01          	lea    (%rcx,%rax,1),%rdi
     56e:	8b 75 b4             	mov    -0x4c(%rbp),%esi
     571:	48 8b 45 b8          	mov    -0x48(%rbp),%rax
     575:	89 d1                	mov    %edx,%ecx
     577:	48 89 fa             	mov    %rdi,%rdx
     57a:	48 89 c7             	mov    %rax,%rdi
     57d:	e8 00 00 00 00       	callq  582 <dtls1_do_write+0x3d8>
     582:	89 45 c8             	mov    %eax,-0x38(%rbp)
     585:	83 7d c8 00          	cmpl   $0x0,-0x38(%rbp)
     589:	79 6b                	jns    5f6 <dtls1_do_write+0x44c>
     58b:	48 8b 45 b8          	mov    -0x48(%rbp),%rax
     58f:	48 89 c7             	mov    %rax,%rdi
     592:	e8 00 00 00 00       	callq  597 <dtls1_do_write+0x3ed>
     597:	b9 00 00 00 00       	mov    $0x0,%ecx
     59c:	ba 00 00 00 00       	mov    $0x0,%edx
     5a1:	be 2b 00 00 00       	mov    $0x2b,%esi
     5a6:	48 89 c7             	mov    %rax,%rdi
     5a9:	e8 00 00 00 00       	callq  5ae <dtls1_do_write+0x404>
     5ae:	48 85 c0             	test   %rax,%rax
     5b1:	7e 39                	jle    5ec <dtls1_do_write+0x442>
     5b3:	48 8b 45 b8          	mov    -0x48(%rbp),%rax
     5b7:	48 8b 98 88 00 00 00 	mov    0x88(%rax),%rbx
     5be:	48 8b 45 b8          	mov    -0x48(%rbp),%rax
     5c2:	48 89 c7             	mov    %rax,%rdi
     5c5:	e8 00 00 00 00       	callq  5ca <dtls1_do_write+0x420>
     5ca:	b9 00 00 00 00       	mov    $0x0,%ecx
     5cf:	ba 00 00 00 00       	mov    $0x0,%edx
     5d4:	be 28 00 00 00       	mov    $0x28,%esi
     5d9:	48 89 c7             	mov    %rax,%rdi
     5dc:	e8 00 00 00 00       	callq  5e1 <dtls1_do_write+0x437>
     5e1:	89 83 80 02 00 00    	mov    %eax,0x280(%rbx)
     5e7:	e9 60 02 00 00       	jmpq   84c <dtls1_do_write+0x6a2>
     5ec:	b8 ff ff ff ff       	mov    $0xffffffff,%eax
     5f1:	e9 6a 02 00 00       	jmpq   860 <dtls1_do_write+0x6b6>
     5f6:	8b 45 c8             	mov    -0x38(%rbp),%eax
     5f9:	3b 45 e8             	cmp    -0x18(%rbp),%eax
     5fc:	74 14                	je     612 <dtls1_do_write+0x468>
     5fe:	ba 00 00 00 00       	mov    $0x0,%edx
     603:	be 6b 01 00 00       	mov    $0x16b,%esi
     608:	bf 00 00 00 00       	mov    $0x0,%edi
     60d:	e8 00 00 00 00       	callq  612 <dtls1_do_write+0x468>
     612:	83 7d b4 16          	cmpl   $0x16,-0x4c(%rbp)
     616:	0f 85 7a 01 00 00    	jne    796 <dtls1_do_write+0x5ec>
     61c:	48 8b 45 b8          	mov    -0x48(%rbp),%rax
     620:	48 8b 80 88 00 00 00 	mov    0x88(%rax),%rax
     627:	8b 80 70 03 00 00    	mov    0x370(%rax),%eax
     62d:	85 c0                	test   %eax,%eax
     62f:	0f 85 61 01 00 00    	jne    796 <dtls1_do_write+0x5ec>
     635:	48 8b 45 b8          	mov    -0x48(%rbp),%rax
     639:	48 8b 40 50          	mov    0x50(%rax),%rax
     63d:	48 8b 50 08          	mov    0x8(%rax),%rdx
     641:	48 8b 45 b8          	mov    -0x48(%rbp),%rax
     645:	8b 40 64             	mov    0x64(%rax),%eax
     648:	48 98                	cltq   
     64a:	48 01 d0             	add    %rdx,%rax
     64d:	48 89 45 d0          	mov    %rax,-0x30(%rbp)
     651:	48 8b 45 b8          	mov    -0x48(%rbp),%rax
     655:	48 8b 80 88 00 00 00 	mov    0x88(%rax),%rax
     65c:	48 05 88 02 00 00    	add    $0x288,%rax
     662:	48 89 45 c0          	mov    %rax,-0x40(%rbp)
     666:	83 7d e4 00          	cmpl   $0x0,-0x1c(%rbp)
     66a:	0f 85 02 01 00 00    	jne    772 <dtls1_do_write+0x5c8>
     670:	48 8b 45 b8          	mov    -0x48(%rbp),%rax
     674:	8b 00                	mov    (%rax),%eax
     676:	3d 00 01 00 00       	cmp    $0x100,%eax
     67b:	0f 84 f1 00 00 00    	je     772 <dtls1_do_write+0x5c8>
     681:	48 8b 45 d0          	mov    -0x30(%rbp),%rax
     685:	48 8d 50 01          	lea    0x1(%rax),%rdx
     689:	48 89 55 d0          	mov    %rdx,-0x30(%rbp)
     68d:	48 8b 55 c0          	mov    -0x40(%rbp),%rdx
     691:	0f b6 12             	movzbl (%rdx),%edx
     694:	88 10                	mov    %dl,(%rax)
     696:	48 8b 45 c0          	mov    -0x40(%rbp),%rax
     69a:	48 8b 40 08          	mov    0x8(%rax),%rax
     69e:	48 c1 e8 10          	shr    $0x10,%rax
     6a2:	89 c2                	mov    %eax,%edx
     6a4:	48 8b 45 d0          	mov    -0x30(%rbp),%rax
     6a8:	88 10                	mov    %dl,(%rax)
     6aa:	48 8b 45 d0          	mov    -0x30(%rbp),%rax
     6ae:	48 8d 50 01          	lea    0x1(%rax),%rdx
     6b2:	48 8b 45 c0          	mov    -0x40(%rbp),%rax
     6b6:	48 8b 40 08          	mov    0x8(%rax),%rax
     6ba:	48 c1 e8 08          	shr    $0x8,%rax
     6be:	88 02                	mov    %al,(%rdx)
     6c0:	48 8b 45 d0          	mov    -0x30(%rbp),%rax
     6c4:	48 8d 50 02          	lea    0x2(%rax),%rdx
     6c8:	48 8b 45 c0          	mov    -0x40(%rbp),%rax
     6cc:	48 8b 40 08          	mov    0x8(%rax),%rax
     6d0:	88 02                	mov    %al,(%rdx)
     6d2:	48 83 45 d0 03       	addq   $0x3,-0x30(%rbp)
     6d7:	48 8b 45 c0          	mov    -0x40(%rbp),%rax
     6db:	0f b7 40 10          	movzwl 0x10(%rax),%eax
     6df:	66 c1 e8 08          	shr    $0x8,%ax
     6e3:	89 c2                	mov    %eax,%edx
     6e5:	48 8b 45 d0          	mov    -0x30(%rbp),%rax
     6e9:	88 10                	mov    %dl,(%rax)
     6eb:	48 8b 45 d0          	mov    -0x30(%rbp),%rax
     6ef:	48 8d 50 01          	lea    0x1(%rax),%rdx
     6f3:	48 8b 45 c0          	mov    -0x40(%rbp),%rax
     6f7:	0f b7 40 10          	movzwl 0x10(%rax),%eax
     6fb:	88 02                	mov    %al,(%rdx)
     6fd:	48 83 45 d0 02       	addq   $0x2,-0x30(%rbp)
     702:	48 8b 45 d0          	mov    -0x30(%rbp),%rax
     706:	c6 00 00             	movb   $0x0,(%rax)
     709:	48 8b 45 d0          	mov    -0x30(%rbp),%rax
     70d:	48 83 c0 01          	add    $0x1,%rax
     711:	c6 00 00             	movb   $0x0,(%rax)
     714:	48 8b 45 d0          	mov    -0x30(%rbp),%rax
     718:	48 83 c0 02          	add    $0x2,%rax
     71c:	c6 00 00             	movb   $0x0,(%rax)
     71f:	48 83 45 d0 03       	addq   $0x3,-0x30(%rbp)
     724:	48 8b 45 c0          	mov    -0x40(%rbp),%rax
     728:	48 8b 40 08          	mov    0x8(%rax),%rax
     72c:	48 c1 e8 10          	shr    $0x10,%rax
     730:	89 c2                	mov    %eax,%edx
     732:	48 8b 45 d0          	mov    -0x30(%rbp),%rax
     736:	88 10                	mov    %dl,(%rax)
     738:	48 8b 45 d0          	mov    -0x30(%rbp),%rax
     73c:	48 8d 50 01          	lea    0x1(%rax),%rdx
     740:	48 8b 45 c0          	mov    -0x40(%rbp),%rax
     744:	48 8b 40 08          	mov    0x8(%rax),%rax
     748:	48 c1 e8 08          	shr    $0x8,%rax
     74c:	88 02                	mov    %al,(%rdx)
     74e:	48 8b 45 d0          	mov    -0x30(%rbp),%rax
     752:	48 8d 50 02          	lea    0x2(%rax),%rdx
     756:	48 8b 45 c0          	mov    -0x40(%rbp),%rax
     75a:	48 8b 40 08          	mov    0x8(%rax),%rax
     75e:	88 02                	mov    %al,(%rdx)
     760:	48 83 45 d0 03       	addq   $0x3,-0x30(%rbp)
     765:	48 83 6d d0 0c       	subq   $0xc,-0x30(%rbp)
     76a:	8b 45 c8             	mov    -0x38(%rbp),%eax
     76d:	89 45 cc             	mov    %eax,-0x34(%rbp)
     770:	eb 0e                	jmp    780 <dtls1_do_write+0x5d6>
     772:	48 83 45 d0 0c       	addq   $0xc,-0x30(%rbp)
     777:	8b 45 c8             	mov    -0x38(%rbp),%eax
     77a:	83 e8 0c             	sub    $0xc,%eax
     77d:	89 45 cc             	mov    %eax,-0x34(%rbp)
     780:	8b 55 cc             	mov    -0x34(%rbp),%edx
     783:	48 8b 4d d0          	mov    -0x30(%rbp),%rcx
     787:	48 8b 45 b8          	mov    -0x48(%rbp),%rax
     78b:	48 89 ce             	mov    %rcx,%rsi
     78e:	48 89 c7             	mov    %rax,%rdi
     791:	e8 00 00 00 00       	callq  796 <dtls1_do_write+0x5ec>
     796:	48 8b 45 b8          	mov    -0x48(%rbp),%rax
     79a:	8b 40 60             	mov    0x60(%rax),%eax
     79d:	3b 45 c8             	cmp    -0x38(%rbp),%eax
     7a0:	75 7a                	jne    81c <dtls1_do_write+0x672>
     7a2:	48 8b 45 b8          	mov    -0x48(%rbp),%rax
     7a6:	48 8b 80 98 00 00 00 	mov    0x98(%rax),%rax
     7ad:	48 85 c0             	test   %rax,%rax
     7b0:	74 4d                	je     7ff <dtls1_do_write+0x655>
     7b2:	48 8b 45 b8          	mov    -0x48(%rbp),%rax
     7b6:	48 8b 80 98 00 00 00 	mov    0x98(%rax),%rax
     7bd:	48 8b 55 b8          	mov    -0x48(%rbp),%rdx
     7c1:	48 8b ba a0 00 00 00 	mov    0xa0(%rdx),%rdi
     7c8:	48 8b 55 b8          	mov    -0x48(%rbp),%rdx
     7cc:	8b 4a 64             	mov    0x64(%rdx),%ecx
     7cf:	48 8b 55 b8          	mov    -0x48(%rbp),%rdx
     7d3:	8b 52 60             	mov    0x60(%rdx),%edx
     7d6:	01 ca                	add    %ecx,%edx
     7d8:	4c 63 c2             	movslq %edx,%r8
     7db:	48 8b 55 b8          	mov    -0x48(%rbp),%rdx
     7df:	48 8b 52 50          	mov    0x50(%rdx),%rdx
     7e3:	48 8b 4a 08          	mov    0x8(%rdx),%rcx
     7e7:	48 8b 55 b8          	mov    -0x48(%rbp),%rdx
     7eb:	8b 32                	mov    (%rdx),%esi
     7ed:	4c 8b 4d b8          	mov    -0x48(%rbp),%r9
     7f1:	8b 55 b4             	mov    -0x4c(%rbp),%edx
     7f4:	48 89 3c 24          	mov    %rdi,(%rsp)
     7f8:	bf 01 00 00 00       	mov    $0x1,%edi
     7fd:	ff d0                	callq  *%rax
     7ff:	48 8b 45 b8          	mov    -0x48(%rbp),%rax
     803:	c7 40 64 00 00 00 00 	movl   $0x0,0x64(%rax)
     80a:	48 8b 45 b8          	mov    -0x48(%rbp),%rax
     80e:	c7 40 60 00 00 00 00 	movl   $0x0,0x60(%rax)
     815:	b8 01 00 00 00       	mov    $0x1,%eax
     81a:	eb 44                	jmp    860 <dtls1_do_write+0x6b6>
     81c:	48 8b 45 b8          	mov    -0x48(%rbp),%rax
     820:	8b 50 64             	mov    0x64(%rax),%edx
     823:	8b 45 c8             	mov    -0x38(%rbp),%eax
     826:	01 c2                	add    %eax,%edx
     828:	48 8b 45 b8          	mov    -0x48(%rbp),%rax
     82c:	89 50 64             	mov    %edx,0x64(%rax)
     82f:	48 8b 45 b8          	mov    -0x48(%rbp),%rax
     833:	8b 40 60             	mov    0x60(%rax),%eax
     836:	2b 45 c8             	sub    -0x38(%rbp),%eax
     839:	89 c2                	mov    %eax,%edx
     83b:	48 8b 45 b8          	mov    -0x48(%rbp),%rax
     83f:	89 50 60             	mov    %edx,0x60(%rax)
     842:	83 6d c8 0c          	subl   $0xc,-0x38(%rbp)
     846:	8b 45 c8             	mov    -0x38(%rbp),%eax
     849:	01 45 e4             	add    %eax,-0x1c(%rbp)
     84c:	48 8b 45 b8          	mov    -0x48(%rbp),%rax
     850:	8b 40 60             	mov    0x60(%rax),%eax
     853:	85 c0                	test   %eax,%eax
     855:	0f 85 6e fb ff ff    	jne    3c9 <dtls1_do_write+0x21f>
     85b:	b8 00 00 00 00       	mov    $0x0,%eax
     860:	48 83 c4 58          	add    $0x58,%rsp
     864:	5b                   	pop    %rbx
     865:	5d                   	pop    %rbp
     866:	c3                   	retq   

0000000000000867 <dtls1_get_message>:
     867:	55                   	push   %rbp
     868:	48 89 e5             	mov    %rsp,%rbp
     86b:	48 83 ec 60          	sub    $0x60,%rsp
     86f:	48 89 7d c8          	mov    %rdi,-0x38(%rbp)
     873:	89 75 c4             	mov    %esi,-0x3c(%rbp)
     876:	89 55 c0             	mov    %edx,-0x40(%rbp)
     879:	89 4d bc             	mov    %ecx,-0x44(%rbp)
     87c:	4c 89 45 b0          	mov    %r8,-0x50(%rbp)
     880:	4c 89 4d a8          	mov    %r9,-0x58(%rbp)
     884:	48 8b 45 c8          	mov    -0x38(%rbp),%rax
     888:	48 8b 80 80 00 00 00 	mov    0x80(%rax),%rax
     88f:	8b 80 c4 03 00 00    	mov    0x3c4(%rax),%eax
     895:	85 c0                	test   %eax,%eax
     897:	0f 84 cd 00 00 00    	je     96a <dtls1_get_message+0x103>
     89d:	48 8b 45 c8          	mov    -0x38(%rbp),%rax
     8a1:	48 8b 80 80 00 00 00 	mov    0x80(%rax),%rax
     8a8:	c7 80 c4 03 00 00 00 	movl   $0x0,0x3c4(%rax)
     8af:	00 00 00 
     8b2:	83 7d bc 00          	cmpl   $0x0,-0x44(%rbp)
     8b6:	78 67                	js     91f <dtls1_get_message+0xb8>
     8b8:	48 8b 45 c8          	mov    -0x38(%rbp),%rax
     8bc:	48 8b 80 80 00 00 00 	mov    0x80(%rax),%rax
     8c3:	8b 80 a0 03 00 00    	mov    0x3a0(%rax),%eax
     8c9:	3b 45 bc             	cmp    -0x44(%rbp),%eax
     8cc:	74 51                	je     91f <dtls1_get_message+0xb8>
     8ce:	c7 45 ec 0a 00 00 00 	movl   $0xa,-0x14(%rbp)
     8d5:	41 b8 b3 01 00 00    	mov    $0x1b3,%r8d
     8db:	b9 00 00 00 00       	mov    $0x0,%ecx
     8e0:	ba f4 00 00 00       	mov    $0xf4,%edx
     8e5:	be fc 00 00 00       	mov    $0xfc,%esi
     8ea:	bf 14 00 00 00       	mov    $0x14,%edi
     8ef:	e8 00 00 00 00       	callq  8f4 <dtls1_get_message+0x8d>
     8f4:	90                   	nop
     8f5:	8b 55 ec             	mov    -0x14(%rbp),%edx
     8f8:	48 8b 45 c8          	mov    -0x38(%rbp),%rax
     8fc:	be 02 00 00 00       	mov    $0x2,%esi
     901:	48 89 c7             	mov    %rax,%rdi
     904:	e8 00 00 00 00       	callq  909 <dtls1_get_message+0xa2>
     909:	48 8b 45 a8          	mov    -0x58(%rbp),%rax
     90d:	c7 00 00 00 00 00    	movl   $0x0,(%rax)
     913:	48 c7 c0 ff ff ff ff 	mov    $0xffffffffffffffff,%rax
     91a:	e9 8d 02 00 00       	jmpq   bac <dtls1_get_message+0x345>
     91f:	48 8b 45 a8          	mov    -0x58(%rbp),%rax
     923:	c7 00 01 00 00 00    	movl   $0x1,(%rax)
     929:	48 8b 45 c8          	mov    -0x38(%rbp),%rax
     92d:	48 8b 40 50          	mov    0x50(%rax),%rax
     931:	48 8b 40 08          	mov    0x8(%rax),%rax
     935:	48 8d 50 0c          	lea    0xc(%rax),%rdx
     939:	48 8b 45 c8          	mov    -0x38(%rbp),%rax
     93d:	48 89 50 58          	mov    %rdx,0x58(%rax)
     941:	48 8b 45 c8          	mov    -0x38(%rbp),%rax
     945:	48 8b 80 80 00 00 00 	mov    0x80(%rax),%rax
     94c:	48 8b 80 98 03 00 00 	mov    0x398(%rax),%rax
     953:	89 c2                	mov    %eax,%edx
     955:	48 8b 45 c8          	mov    -0x38(%rbp),%rax
     959:	89 50 60             	mov    %edx,0x60(%rax)
     95c:	48 8b 45 c8          	mov    -0x38(%rbp),%rax
     960:	8b 40 60             	mov    0x60(%rax),%eax
     963:	48 98                	cltq   
     965:	e9 42 02 00 00       	jmpq   bac <dtls1_get_message+0x345>
     96a:	48 8b 45 c8          	mov    -0x38(%rbp),%rax
     96e:	48 8b 80 88 00 00 00 	mov    0x88(%rax),%rax
     975:	48 05 e0 02 00 00    	add    $0x2e0,%rax
     97b:	48 89 45 e0          	mov    %rax,-0x20(%rbp)
     97f:	48 8b 45 e0          	mov    -0x20(%rbp),%rax
     983:	ba 58 00 00 00       	mov    $0x58,%edx
     988:	be 00 00 00 00       	mov    $0x0,%esi
     98d:	48 89 c7             	mov    %rax,%rdi
     990:	e8 00 00 00 00       	callq  995 <dtls1_get_message+0x12e>
     995:	48 8b 7d a8          	mov    -0x58(%rbp),%rdi
     999:	48 8b 4d b0          	mov    -0x50(%rbp),%rcx
     99d:	8b 55 c0             	mov    -0x40(%rbp),%edx
     9a0:	8b 75 c4             	mov    -0x3c(%rbp),%esi
     9a3:	48 8b 45 c8          	mov    -0x38(%rbp),%rax
     9a7:	49 89 f8             	mov    %rdi,%r8
     9aa:	48 89 c7             	mov    %rax,%rdi
     9ad:	e8 49 0e 00 00       	callq  17fb <dtls1_get_message_fragment>
     9b2:	89 45 dc             	mov    %eax,-0x24(%rbp)
     9b5:	83 7d dc fe          	cmpl   $0xfffffffe,-0x24(%rbp)
     9b9:	74 da                	je     995 <dtls1_get_message+0x12e>
     9bb:	83 7d dc fd          	cmpl   $0xfffffffd,-0x24(%rbp)
     9bf:	74 d4                	je     995 <dtls1_get_message+0x12e>
     9c1:	83 7d dc 00          	cmpl   $0x0,-0x24(%rbp)
     9c5:	7f 14                	jg     9db <dtls1_get_message+0x174>
     9c7:	48 8b 45 a8          	mov    -0x58(%rbp),%rax
     9cb:	8b 00                	mov    (%rax),%eax
     9cd:	85 c0                	test   %eax,%eax
     9cf:	75 0a                	jne    9db <dtls1_get_message+0x174>
     9d1:	8b 45 dc             	mov    -0x24(%rbp),%eax
     9d4:	48 98                	cltq   
     9d6:	e9 d1 01 00 00       	jmpq   bac <dtls1_get_message+0x345>
     9db:	48 8b 45 c8          	mov    -0x38(%rbp),%rax
     9df:	48 8b 40 50          	mov    0x50(%rax),%rax
     9e3:	48 8b 40 08          	mov    0x8(%rax),%rax
     9e7:	48 89 45 f8          	mov    %rax,-0x8(%rbp)
     9eb:	48 8b 45 e0          	mov    -0x20(%rbp),%rax
     9ef:	48 8b 40 08          	mov    0x8(%rax),%rax
     9f3:	48 89 45 f0          	mov    %rax,-0x10(%rbp)
     9f7:	48 8b 45 f8          	mov    -0x8(%rbp),%rax
     9fb:	48 8d 50 01          	lea    0x1(%rax),%rdx
     9ff:	48 89 55 f8          	mov    %rdx,-0x8(%rbp)
     a03:	48 8b 55 e0          	mov    -0x20(%rbp),%rdx
     a07:	0f b6 12             	movzbl (%rdx),%edx
     a0a:	88 10                	mov    %dl,(%rax)
     a0c:	48 8b 45 f0          	mov    -0x10(%rbp),%rax
     a10:	48 c1 e8 10          	shr    $0x10,%rax
     a14:	89 c2                	mov    %eax,%edx
     a16:	48 8b 45 f8          	mov    -0x8(%rbp),%rax
     a1a:	88 10                	mov    %dl,(%rax)
     a1c:	48 8b 45 f8          	mov    -0x8(%rbp),%rax
     a20:	48 8d 50 01          	lea    0x1(%rax),%rdx
     a24:	48 8b 45 f0          	mov    -0x10(%rbp),%rax
     a28:	48 c1 e8 08          	shr    $0x8,%rax
     a2c:	88 02                	mov    %al,(%rdx)
     a2e:	48 8b 45 f8          	mov    -0x8(%rbp),%rax
     a32:	48 8d 50 02          	lea    0x2(%rax),%rdx
     a36:	48 8b 45 f0          	mov    -0x10(%rbp),%rax
     a3a:	88 02                	mov    %al,(%rdx)
     a3c:	48 83 45 f8 03       	addq   $0x3,-0x8(%rbp)
     a41:	48 8b 45 e0          	mov    -0x20(%rbp),%rax
     a45:	0f b7 40 10          	movzwl 0x10(%rax),%eax
     a49:	66 c1 e8 08          	shr    $0x8,%ax
     a4d:	89 c2                	mov    %eax,%edx
     a4f:	48 8b 45 f8          	mov    -0x8(%rbp),%rax
     a53:	88 10                	mov    %dl,(%rax)
     a55:	48 8b 45 f8          	mov    -0x8(%rbp),%rax
     a59:	48 8d 50 01          	lea    0x1(%rax),%rdx
     a5d:	48 8b 45 e0          	mov    -0x20(%rbp),%rax
     a61:	0f b7 40 10          	movzwl 0x10(%rax),%eax
     a65:	88 02                	mov    %al,(%rdx)
     a67:	48 83 45 f8 02       	addq   $0x2,-0x8(%rbp)
     a6c:	48 8b 45 f8          	mov    -0x8(%rbp),%rax
     a70:	c6 00 00             	movb   $0x0,(%rax)
     a73:	48 8b 45 f8          	mov    -0x8(%rbp),%rax
     a77:	48 83 c0 01          	add    $0x1,%rax
     a7b:	c6 00 00             	movb   $0x0,(%rax)
     a7e:	48 8b 45 f8          	mov    -0x8(%rbp),%rax
     a82:	48 83 c0 02          	add    $0x2,%rax
     a86:	c6 00 00             	movb   $0x0,(%rax)
     a89:	48 83 45 f8 03       	addq   $0x3,-0x8(%rbp)
     a8e:	48 8b 45 f0          	mov    -0x10(%rbp),%rax
     a92:	48 c1 e8 10          	shr    $0x10,%rax
     a96:	89 c2                	mov    %eax,%edx
     a98:	48 8b 45 f8          	mov    -0x8(%rbp),%rax
     a9c:	88 10                	mov    %dl,(%rax)
     a9e:	48 8b 45 f8          	mov    -0x8(%rbp),%rax
     aa2:	48 8d 50 01          	lea    0x1(%rax),%rdx
     aa6:	48 8b 45 f0          	mov    -0x10(%rbp),%rax
     aaa:	48 c1 e8 08          	shr    $0x8,%rax
     aae:	88 02                	mov    %al,(%rdx)
     ab0:	48 8b 45 f8          	mov    -0x8(%rbp),%rax
     ab4:	48 8d 50 02          	lea    0x2(%rax),%rdx
     ab8:	48 8b 45 f0          	mov    -0x10(%rbp),%rax
     abc:	88 02                	mov    %al,(%rdx)
     abe:	48 83 45 f8 03       	addq   $0x3,-0x8(%rbp)
     ac3:	48 8b 45 c8          	mov    -0x38(%rbp),%rax
     ac7:	8b 00                	mov    (%rax),%eax
     ac9:	3d 00 01 00 00       	cmp    $0x100,%eax
     ace:	74 0a                	je     ada <dtls1_get_message+0x273>
     ad0:	48 83 6d f8 0c       	subq   $0xc,-0x8(%rbp)
     ad5:	48 83 45 f0 0c       	addq   $0xc,-0x10(%rbp)
     ada:	48 8b 45 f0          	mov    -0x10(%rbp),%rax
     ade:	89 c2                	mov    %eax,%edx
     ae0:	48 8b 4d f8          	mov    -0x8(%rbp),%rcx
     ae4:	48 8b 45 c8          	mov    -0x38(%rbp),%rax
     ae8:	48 89 ce             	mov    %rcx,%rsi
     aeb:	48 89 c7             	mov    %rax,%rdi
     aee:	e8 00 00 00 00       	callq  af3 <dtls1_get_message+0x28c>
     af3:	48 8b 45 c8          	mov    -0x38(%rbp),%rax
     af7:	48 8b 80 98 00 00 00 	mov    0x98(%rax),%rax
     afe:	48 85 c0             	test   %rax,%rax
     b01:	74 41                	je     b44 <dtls1_get_message+0x2dd>
     b03:	48 8b 45 c8          	mov    -0x38(%rbp),%rax
     b07:	48 8b 80 98 00 00 00 	mov    0x98(%rax),%rax
     b0e:	48 8b 55 c8          	mov    -0x38(%rbp),%rdx
     b12:	48 8b 8a a0 00 00 00 	mov    0xa0(%rdx),%rcx
     b19:	48 8b 55 c8          	mov    -0x38(%rbp),%rdx
     b1d:	8b 32                	mov    (%rdx),%esi
     b1f:	4c 8b 45 c8          	mov    -0x38(%rbp),%r8
     b23:	48 8b 7d f0          	mov    -0x10(%rbp),%rdi
     b27:	48 8b 55 f8          	mov    -0x8(%rbp),%rdx
     b2b:	48 89 0c 24          	mov    %rcx,(%rsp)
     b2f:	4d 89 c1             	mov    %r8,%r9
     b32:	49 89 f8             	mov    %rdi,%r8
     b35:	48 89 d1             	mov    %rdx,%rcx
     b38:	ba 16 00 00 00       	mov    $0x16,%edx
     b3d:	bf 00 00 00 00       	mov    $0x0,%edi
     b42:	ff d0                	callq  *%rax
     b44:	48 8b 45 e0          	mov    -0x20(%rbp),%rax
     b48:	ba 58 00 00 00       	mov    $0x58,%edx
     b4d:	be 00 00 00 00       	mov    $0x0,%esi
     b52:	48 89 c7             	mov    %rax,%rdi
     b55:	e8 00 00 00 00       	callq  b5a <dtls1_get_message+0x2f3>
     b5a:	48 8b 45 c8          	mov    -0x38(%rbp),%rax
     b5e:	48 8b 80 88 00 00 00 	mov    0x88(%rax),%rax
     b65:	8b 80 78 03 00 00    	mov    0x378(%rax),%eax
     b6b:	85 c0                	test   %eax,%eax
     b6d:	75 1c                	jne    b8b <dtls1_get_message+0x324>
     b6f:	48 8b 45 c8          	mov    -0x38(%rbp),%rax
     b73:	48 8b 80 88 00 00 00 	mov    0x88(%rax),%rax
     b7a:	0f b7 90 34 02 00 00 	movzwl 0x234(%rax),%edx
     b81:	83 c2 01             	add    $0x1,%edx
     b84:	66 89 90 34 02 00 00 	mov    %dx,0x234(%rax)
     b8b:	48 8b 45 c8          	mov    -0x38(%rbp),%rax
     b8f:	48 8b 40 50          	mov    0x50(%rax),%rax
     b93:	48 8b 40 08          	mov    0x8(%rax),%rax
     b97:	48 8d 50 0c          	lea    0xc(%rax),%rdx
     b9b:	48 8b 45 c8          	mov    -0x38(%rbp),%rax
     b9f:	48 89 50 58          	mov    %rdx,0x58(%rax)
     ba3:	48 8b 45 c8          	mov    -0x38(%rbp),%rax
     ba7:	8b 40 60             	mov    0x60(%rax),%eax
     baa:	48 98                	cltq   
     bac:	c9                   	leaveq 
     bad:	c3                   	retq   

0000000000000bae <dtls1_preprocess_fragment>:
     bae:	55                   	push   %rbp
     baf:	48 89 e5             	mov    %rsp,%rbp
     bb2:	48 83 ec 40          	sub    $0x40,%rsp
     bb6:	48 89 7d d8          	mov    %rdi,-0x28(%rbp)
     bba:	48 89 75 d0          	mov    %rsi,-0x30(%rbp)
     bbe:	89 55 cc             	mov    %edx,-0x34(%rbp)
     bc1:	48 8b 45 d0          	mov    -0x30(%rbp),%rax
     bc5:	48 8b 40 08          	mov    0x8(%rax),%rax
     bc9:	48 89 45 f8          	mov    %rax,-0x8(%rbp)
     bcd:	48 8b 45 d0          	mov    -0x30(%rbp),%rax
     bd1:	48 8b 40 18          	mov    0x18(%rax),%rax
     bd5:	48 89 45 f0          	mov    %rax,-0x10(%rbp)
     bd9:	48 8b 45 d0          	mov    -0x30(%rbp),%rax
     bdd:	48 8b 40 20          	mov    0x20(%rax),%rax
     be1:	48 89 45 e8          	mov    %rax,-0x18(%rbp)
     be5:	48 8b 45 e8          	mov    -0x18(%rbp),%rax
     be9:	48 8b 55 f0          	mov    -0x10(%rbp),%rdx
     bed:	48 01 d0             	add    %rdx,%rax
     bf0:	48 3b 45 f8          	cmp    -0x8(%rbp),%rax
     bf4:	76 29                	jbe    c1f <dtls1_preprocess_fragment+0x71>
     bf6:	41 b8 f6 01 00 00    	mov    $0x1f6,%r8d
     bfc:	b9 00 00 00 00       	mov    $0x0,%ecx
     c01:	ba 98 00 00 00       	mov    $0x98,%edx
     c06:	be 20 01 00 00       	mov    $0x120,%esi
     c0b:	bf 14 00 00 00       	mov    $0x14,%edi
     c10:	e8 00 00 00 00       	callq  c15 <dtls1_preprocess_fragment+0x67>
     c15:	b8 2f 00 00 00       	mov    $0x2f,%eax
     c1a:	e9 5f 01 00 00       	jmpq   d7e <dtls1_preprocess_fragment+0x1d0>
     c1f:	48 8b 45 e8          	mov    -0x18(%rbp),%rax
     c23:	48 8b 55 f0          	mov    -0x10(%rbp),%rdx
     c27:	48 01 c2             	add    %rax,%rdx
     c2a:	8b 45 cc             	mov    -0x34(%rbp),%eax
     c2d:	48 98                	cltq   
     c2f:	48 39 c2             	cmp    %rax,%rdx
     c32:	76 29                	jbe    c5d <dtls1_preprocess_fragment+0xaf>
     c34:	41 b8 fc 01 00 00    	mov    $0x1fc,%r8d
     c3a:	b9 00 00 00 00       	mov    $0x0,%ecx
     c3f:	ba 98 00 00 00       	mov    $0x98,%edx
     c44:	be 20 01 00 00       	mov    $0x120,%esi
     c49:	bf 14 00 00 00       	mov    $0x14,%edi
     c4e:	e8 00 00 00 00       	callq  c53 <dtls1_preprocess_fragment+0xa5>
     c53:	b8 2f 00 00 00       	mov    $0x2f,%eax
     c58:	e9 21 01 00 00       	jmpq   d7e <dtls1_preprocess_fragment+0x1d0>
     c5d:	48 8b 45 d8          	mov    -0x28(%rbp),%rax
     c61:	48 8b 80 88 00 00 00 	mov    0x88(%rax),%rax
     c68:	48 8b 80 f8 02 00 00 	mov    0x2f8(%rax),%rax
     c6f:	48 85 c0             	test   %rax,%rax
     c72:	0f 85 c3 00 00 00    	jne    d3b <dtls1_preprocess_fragment+0x18d>
     c78:	48 8b 45 f8          	mov    -0x8(%rbp),%rax
     c7c:	48 8d 50 0c          	lea    0xc(%rax),%rdx
     c80:	48 8b 45 d8          	mov    -0x28(%rbp),%rax
     c84:	48 8b 40 50          	mov    0x50(%rax),%rax
     c88:	48 89 d6             	mov    %rdx,%rsi
     c8b:	48 89 c7             	mov    %rax,%rdi
     c8e:	e8 00 00 00 00       	callq  c93 <dtls1_preprocess_fragment+0xe5>
     c93:	85 c0                	test   %eax,%eax
     c95:	75 29                	jne    cc0 <dtls1_preprocess_fragment+0x112>
     c97:	41 b8 06 02 00 00    	mov    $0x206,%r8d
     c9d:	b9 00 00 00 00       	mov    $0x0,%ecx
     ca2:	ba 07 00 00 00       	mov    $0x7,%edx
     ca7:	be 20 01 00 00       	mov    $0x120,%esi
     cac:	bf 14 00 00 00       	mov    $0x14,%edi
     cb1:	e8 00 00 00 00       	callq  cb6 <dtls1_preprocess_fragment+0x108>
     cb6:	b8 50 00 00 00       	mov    $0x50,%eax
     cbb:	e9 be 00 00 00       	jmpq   d7e <dtls1_preprocess_fragment+0x1d0>
     cc0:	48 8b 45 d8          	mov    -0x28(%rbp),%rax
     cc4:	48 8b 80 80 00 00 00 	mov    0x80(%rax),%rax
     ccb:	48 8b 55 f8          	mov    -0x8(%rbp),%rdx
     ccf:	48 89 90 98 03 00 00 	mov    %rdx,0x398(%rax)
     cd6:	48 8b 45 d8          	mov    -0x28(%rbp),%rax
     cda:	48 8b 80 88 00 00 00 	mov    0x88(%rax),%rax
     ce1:	48 8b 55 f8          	mov    -0x8(%rbp),%rdx
     ce5:	48 89 90 e8 02 00 00 	mov    %rdx,0x2e8(%rax)
     cec:	48 8b 45 d8          	mov    -0x28(%rbp),%rax
     cf0:	48 8b 80 80 00 00 00 	mov    0x80(%rax),%rax
     cf7:	48 8b 55 d0          	mov    -0x30(%rbp),%rdx
     cfb:	0f b6 12             	movzbl (%rdx),%edx
     cfe:	0f b6 d2             	movzbl %dl,%edx
     d01:	89 90 a0 03 00 00    	mov    %edx,0x3a0(%rax)
     d07:	48 8b 45 d8          	mov    -0x28(%rbp),%rax
     d0b:	48 8b 80 88 00 00 00 	mov    0x88(%rax),%rax
     d12:	48 8b 55 d0          	mov    -0x30(%rbp),%rdx
     d16:	0f b6 12             	movzbl (%rdx),%edx
     d19:	88 90 e0 02 00 00    	mov    %dl,0x2e0(%rax)
     d1f:	48 8b 45 d8          	mov    -0x28(%rbp),%rax
     d23:	48 8b 80 88 00 00 00 	mov    0x88(%rax),%rax
     d2a:	48 8b 55 d0          	mov    -0x30(%rbp),%rdx
     d2e:	0f b7 52 10          	movzwl 0x10(%rdx),%edx
     d32:	66 89 90 f0 02 00 00 	mov    %dx,0x2f0(%rax)
     d39:	eb 3e                	jmp    d79 <dtls1_preprocess_fragment+0x1cb>
     d3b:	48 8b 45 d8          	mov    -0x28(%rbp),%rax
     d3f:	48 8b 80 88 00 00 00 	mov    0x88(%rax),%rax
     d46:	48 8b 80 e8 02 00 00 	mov    0x2e8(%rax),%rax
     d4d:	48 3b 45 f8          	cmp    -0x8(%rbp),%rax
     d51:	74 26                	je     d79 <dtls1_preprocess_fragment+0x1cb>
     d53:	41 b8 14 02 00 00    	mov    $0x214,%r8d
     d59:	b9 00 00 00 00       	mov    $0x0,%ecx
     d5e:	ba 98 00 00 00       	mov    $0x98,%edx
     d63:	be 20 01 00 00       	mov    $0x120,%esi
     d68:	bf 14 00 00 00       	mov    $0x14,%edi
     d6d:	e8 00 00 00 00       	callq  d72 <dtls1_preprocess_fragment+0x1c4>
     d72:	b8 2f 00 00 00       	mov    $0x2f,%eax
     d77:	eb 05                	jmp    d7e <dtls1_preprocess_fragment+0x1d0>
     d79:	b8 00 00 00 00       	mov    $0x0,%eax
     d7e:	c9                   	leaveq 
     d7f:	c3                   	retq   

0000000000000d80 <dtls1_retrieve_buffered_fragment>:
     d80:	55                   	push   %rbp
     d81:	48 89 e5             	mov    %rsp,%rbp
     d84:	48 83 ec 50          	sub    $0x50,%rsp
     d88:	48 89 7d c8          	mov    %rdi,-0x38(%rbp)
     d8c:	48 89 75 c0          	mov    %rsi,-0x40(%rbp)
     d90:	48 89 55 b8          	mov    %rdx,-0x48(%rbp)
     d94:	48 8b 45 b8          	mov    -0x48(%rbp),%rax
     d98:	c7 00 00 00 00 00    	movl   $0x0,(%rax)
     d9e:	48 8b 45 c8          	mov    -0x38(%rbp),%rax
     da2:	48 8b 80 88 00 00 00 	mov    0x88(%rax),%rax
     da9:	48 8b 80 60 02 00 00 	mov    0x260(%rax),%rax
     db0:	48 89 c7             	mov    %rax,%rdi
     db3:	e8 00 00 00 00       	callq  db8 <dtls1_retrieve_buffered_fragment+0x38>
     db8:	48 89 45 f8          	mov    %rax,-0x8(%rbp)
     dbc:	48 83 7d f8 00       	cmpq   $0x0,-0x8(%rbp)
     dc1:	75 0a                	jne    dcd <dtls1_retrieve_buffered_fragment+0x4d>
     dc3:	b8 00 00 00 00       	mov    $0x0,%eax
     dc8:	e9 2f 01 00 00       	jmpq   efc <dtls1_retrieve_buffered_fragment+0x17c>
     dcd:	48 8b 45 f8          	mov    -0x8(%rbp),%rax
     dd1:	48 8b 40 08          	mov    0x8(%rax),%rax
     dd5:	48 89 45 f0          	mov    %rax,-0x10(%rbp)
     dd9:	48 8b 45 f0          	mov    -0x10(%rbp),%rax
     ddd:	48 8b 40 60          	mov    0x60(%rax),%rax
     de1:	48 85 c0             	test   %rax,%rax
     de4:	74 0a                	je     df0 <dtls1_retrieve_buffered_fragment+0x70>
     de6:	b8 00 00 00 00       	mov    $0x0,%eax
     deb:	e9 0c 01 00 00       	jmpq   efc <dtls1_retrieve_buffered_fragment+0x17c>
     df0:	48 8b 45 c8          	mov    -0x38(%rbp),%rax
     df4:	48 8b 80 88 00 00 00 	mov    0x88(%rax),%rax
     dfb:	0f b7 90 34 02 00 00 	movzwl 0x234(%rax),%edx
     e02:	48 8b 45 f0          	mov    -0x10(%rbp),%rax
     e06:	0f b7 40 10          	movzwl 0x10(%rax),%eax
     e0a:	66 39 c2             	cmp    %ax,%dx
     e0d:	0f 85 e4 00 00 00    	jne    ef7 <dtls1_retrieve_buffered_fragment+0x177>
     e13:	48 8b 45 f0          	mov    -0x10(%rbp),%rax
     e17:	48 8b 40 20          	mov    0x20(%rax),%rax
     e1b:	48 89 45 e8          	mov    %rax,-0x18(%rbp)
     e1f:	48 8b 45 c8          	mov    -0x38(%rbp),%rax
     e23:	48 8b 80 88 00 00 00 	mov    0x88(%rax),%rax
     e2a:	48 8b 80 60 02 00 00 	mov    0x260(%rax),%rax
     e31:	48 89 c7             	mov    %rax,%rdi
     e34:	e8 00 00 00 00       	callq  e39 <dtls1_retrieve_buffered_fragment+0xb9>
     e39:	48 8b 45 c0          	mov    -0x40(%rbp),%rax
     e3d:	89 c2                	mov    %eax,%edx
     e3f:	48 8b 4d f0          	mov    -0x10(%rbp),%rcx
     e43:	48 8b 45 c8          	mov    -0x38(%rbp),%rax
     e47:	48 89 ce             	mov    %rcx,%rsi
     e4a:	48 89 c7             	mov    %rax,%rdi
     e4d:	e8 5c fd ff ff       	callq  bae <dtls1_preprocess_fragment>
     e52:	89 45 e4             	mov    %eax,-0x1c(%rbp)
     e55:	83 7d e4 00          	cmpl   $0x0,-0x1c(%rbp)
     e59:	75 3e                	jne    e99 <dtls1_retrieve_buffered_fragment+0x119>
     e5b:	48 8b 45 c8          	mov    -0x38(%rbp),%rax
     e5f:	48 8b 40 50          	mov    0x50(%rax),%rax
     e63:	48 8b 40 08          	mov    0x8(%rax),%rax
     e67:	48 83 c0 0c          	add    $0xc,%rax
     e6b:	48 89 45 d8          	mov    %rax,-0x28(%rbp)
     e6f:	48 8b 45 f0          	mov    -0x10(%rbp),%rax
     e73:	48 8b 50 20          	mov    0x20(%rax),%rdx
     e77:	48 8b 45 f0          	mov    -0x10(%rbp),%rax
     e7b:	48 8b 40 58          	mov    0x58(%rax),%rax
     e7f:	48 8b 4d f0          	mov    -0x10(%rbp),%rcx
     e83:	48 8b 71 18          	mov    0x18(%rcx),%rsi
     e87:	48 8b 4d d8          	mov    -0x28(%rbp),%rcx
     e8b:	48 01 f1             	add    %rsi,%rcx
     e8e:	48 89 c6             	mov    %rax,%rsi
     e91:	48 89 cf             	mov    %rcx,%rdi
     e94:	e8 00 00 00 00       	callq  e99 <dtls1_retrieve_buffered_fragment+0x119>
     e99:	48 8b 45 f0          	mov    -0x10(%rbp),%rax
     e9d:	48 89 c7             	mov    %rax,%rdi
     ea0:	e8 86 f2 ff ff       	callq  12b <dtls1_hm_fragment_free>
     ea5:	48 8b 45 f8          	mov    -0x8(%rbp),%rax
     ea9:	48 89 c7             	mov    %rax,%rdi
     eac:	e8 00 00 00 00       	callq  eb1 <dtls1_retrieve_buffered_fragment+0x131>
     eb1:	83 7d e4 00          	cmpl   $0x0,-0x1c(%rbp)
     eb5:	75 10                	jne    ec7 <dtls1_retrieve_buffered_fragment+0x147>
     eb7:	48 8b 45 b8          	mov    -0x48(%rbp),%rax
     ebb:	c7 00 01 00 00 00    	movl   $0x1,(%rax)
     ec1:	48 8b 45 e8          	mov    -0x18(%rbp),%rax
     ec5:	eb 35                	jmp    efc <dtls1_retrieve_buffered_fragment+0x17c>
     ec7:	8b 55 e4             	mov    -0x1c(%rbp),%edx
     eca:	48 8b 45 c8          	mov    -0x38(%rbp),%rax
     ece:	be 02 00 00 00       	mov    $0x2,%esi
     ed3:	48 89 c7             	mov    %rax,%rdi
     ed6:	e8 00 00 00 00       	callq  edb <dtls1_retrieve_buffered_fragment+0x15b>
     edb:	48 8b 45 c8          	mov    -0x38(%rbp),%rax
     edf:	c7 40 60 00 00 00 00 	movl   $0x0,0x60(%rax)
     ee6:	48 8b 45 b8          	mov    -0x48(%rbp),%rax
     eea:	c7 00 00 00 00 00    	movl   $0x0,(%rax)
     ef0:	b8 ff ff ff ff       	mov    $0xffffffff,%eax
     ef5:	eb 05                	jmp    efc <dtls1_retrieve_buffered_fragment+0x17c>
     ef7:	b8 00 00 00 00       	mov    $0x0,%eax
     efc:	c9                   	leaveq 
     efd:	c3                   	retq   

0000000000000efe <dtls1_reassemble_fragment>:
     efe:	55                   	push   %rbp
     eff:	48 89 e5             	mov    %rsp,%rbp
     f02:	48 81 ec 70 01 00 00 	sub    $0x170,%rsp
     f09:	48 89 bd a8 fe ff ff 	mov    %rdi,-0x158(%rbp)
     f10:	48 89 b5 a0 fe ff ff 	mov    %rsi,-0x160(%rbp)
     f17:	48 89 95 98 fe ff ff 	mov    %rdx,-0x168(%rbp)
     f1e:	48 c7 45 f8 00 00 00 	movq   $0x0,-0x8(%rbp)
     f25:	00 
     f26:	48 c7 45 f0 00 00 00 	movq   $0x0,-0x10(%rbp)
     f2d:	00 
     f2e:	c7 45 ec ff ff ff ff 	movl   $0xffffffff,-0x14(%rbp)
     f35:	48 8b 85 a0 fe ff ff 	mov    -0x160(%rbp),%rax
     f3c:	48 8b 40 20          	mov    0x20(%rax),%rax
     f40:	48 89 45 e0          	mov    %rax,-0x20(%rbp)
     f44:	48 8b 85 a0 fe ff ff 	mov    -0x160(%rbp),%rax
     f4b:	48 8b 50 18          	mov    0x18(%rax),%rdx
     f4f:	48 8b 45 e0          	mov    -0x20(%rbp),%rax
     f53:	48 01 c2             	add    %rax,%rdx
     f56:	48 8b 85 a0 fe ff ff 	mov    -0x160(%rbp),%rax
     f5d:	48 8b 40 08          	mov    0x8(%rax),%rax
     f61:	48 39 c2             	cmp    %rax,%rdx
     f64:	76 05                	jbe    f6b <dtls1_reassemble_fragment+0x6d>
     f66:	e9 04 05 00 00       	jmpq   146f <dtls1_reassemble_fragment+0x571>
     f6b:	48 8b 85 a8 fe ff ff 	mov    -0x158(%rbp),%rax
     f72:	48 8b 80 c0 01 00 00 	mov    0x1c0(%rax),%rax
     f79:	48 3d 4c 45 00 00    	cmp    $0x454c,%rax
     f7f:	7e 14                	jle    f95 <dtls1_reassemble_fragment+0x97>
     f81:	48 8b 85 a8 fe ff ff 	mov    -0x158(%rbp),%rax
     f88:	48 8b 80 c0 01 00 00 	mov    0x1c0(%rax),%rax
     f8f:	48 89 45 d8          	mov    %rax,-0x28(%rbp)
     f93:	eb 08                	jmp    f9d <dtls1_reassemble_fragment+0x9f>
     f95:	48 c7 45 d8 4c 45 00 	movq   $0x454c,-0x28(%rbp)
     f9c:	00 
     f9d:	48 8b 85 a0 fe ff ff 	mov    -0x160(%rbp),%rax
     fa4:	48 8b 50 18          	mov    0x18(%rax),%rdx
     fa8:	48 8b 45 e0          	mov    -0x20(%rbp),%rax
     fac:	48 01 d0             	add    %rdx,%rax
     faf:	48 3b 45 d8          	cmp    -0x28(%rbp),%rax
     fb3:	76 05                	jbe    fba <dtls1_reassemble_fragment+0xbc>
     fb5:	e9 b5 04 00 00       	jmpq   146f <dtls1_reassemble_fragment+0x571>
     fba:	48 8d 45 b0          	lea    -0x50(%rbp),%rax
     fbe:	ba 08 00 00 00       	mov    $0x8,%edx
     fc3:	be 00 00 00 00       	mov    $0x0,%esi
     fc8:	48 89 c7             	mov    %rax,%rdi
     fcb:	e8 00 00 00 00       	callq  fd0 <dtls1_reassemble_fragment+0xd2>
     fd0:	48 8b 85 a0 fe ff ff 	mov    -0x160(%rbp),%rax
     fd7:	0f b7 40 10          	movzwl 0x10(%rax),%eax
     fdb:	66 c1 e8 08          	shr    $0x8,%ax
     fdf:	88 45 b6             	mov    %al,-0x4a(%rbp)
     fe2:	48 8b 85 a0 fe ff ff 	mov    -0x160(%rbp),%rax
     fe9:	0f b7 40 10          	movzwl 0x10(%rax),%eax
     fed:	88 45 b7             	mov    %al,-0x49(%rbp)
     ff0:	48 8b 85 a8 fe ff ff 	mov    -0x158(%rbp),%rax
     ff7:	48 8b 80 88 00 00 00 	mov    0x88(%rax),%rax
     ffe:	48 8b 80 60 02 00 00 	mov    0x260(%rax),%rax
    1005:	48 8d 55 b0          	lea    -0x50(%rbp),%rdx
    1009:	48 89 d6             	mov    %rdx,%rsi
    100c:	48 89 c7             	mov    %rax,%rdi
    100f:	e8 00 00 00 00       	callq  1014 <dtls1_reassemble_fragment+0x116>
    1014:	48 89 45 f0          	mov    %rax,-0x10(%rbp)
    1018:	48 83 7d f0 00       	cmpq   $0x0,-0x10(%rbp)
    101d:	75 61                	jne    1080 <dtls1_reassemble_fragment+0x182>
    101f:	48 8b 85 a0 fe ff ff 	mov    -0x160(%rbp),%rax
    1026:	48 8b 40 08          	mov    0x8(%rax),%rax
    102a:	be 01 00 00 00       	mov    $0x1,%esi
    102f:	48 89 c7             	mov    %rax,%rdi
    1032:	e8 d5 ef ff ff       	callq  c <dtls1_hm_fragment_new>
    1037:	48 89 45 f8          	mov    %rax,-0x8(%rbp)
    103b:	48 83 7d f8 00       	cmpq   $0x0,-0x8(%rbp)
    1040:	75 05                	jne    1047 <dtls1_reassemble_fragment+0x149>
    1042:	e9 28 04 00 00       	jmpq   146f <dtls1_reassemble_fragment+0x571>
    1047:	48 8b 45 f8          	mov    -0x8(%rbp),%rax
    104b:	48 8b 8d a0 fe ff ff 	mov    -0x160(%rbp),%rcx
    1052:	ba 58 00 00 00       	mov    $0x58,%edx
    1057:	48 89 ce             	mov    %rcx,%rsi
    105a:	48 89 c7             	mov    %rax,%rdi
    105d:	e8 00 00 00 00       	callq  1062 <dtls1_reassemble_fragment+0x164>
    1062:	48 8b 45 f8          	mov    -0x8(%rbp),%rax
    1066:	48 8b 50 08          	mov    0x8(%rax),%rdx
    106a:	48 8b 45 f8          	mov    -0x8(%rbp),%rax
    106e:	48 89 50 20          	mov    %rdx,0x20(%rax)
    1072:	48 8b 45 f8          	mov    -0x8(%rbp),%rax
    1076:	48 c7 40 18 00 00 00 	movq   $0x0,0x18(%rax)
    107d:	00 
    107e:	eb 0c                	jmp    108c <dtls1_reassemble_fragment+0x18e>
    1080:	48 8b 45 f0          	mov    -0x10(%rbp),%rax
    1084:	48 8b 40 08          	mov    0x8(%rax),%rax
    1088:	48 89 45 f8          	mov    %rax,-0x8(%rbp)
    108c:	48 8b 45 f8          	mov    -0x8(%rbp),%rax
    1090:	48 8b 40 60          	mov    0x60(%rax),%rax
    1094:	48 85 c0             	test   %rax,%rax
    1097:	75 67                	jne    1100 <dtls1_reassemble_fragment+0x202>
    1099:	eb 54                	jmp    10ef <dtls1_reassemble_fragment+0x1f1>
    109b:	48 8b 85 a8 fe ff ff 	mov    -0x158(%rbp),%rax
    10a2:	48 8b 40 08          	mov    0x8(%rax),%rax
    10a6:	48 8b 40 68          	mov    0x68(%rax),%rax
    10aa:	ba 00 01 00 00       	mov    $0x100,%edx
    10af:	48 81 7d e0 00 01 00 	cmpq   $0x100,-0x20(%rbp)
    10b6:	00 
    10b7:	48 0f 46 55 e0       	cmovbe -0x20(%rbp),%rdx
    10bc:	89 d1                	mov    %edx,%ecx
    10be:	48 8d 95 b0 fe ff ff 	lea    -0x150(%rbp),%rdx
    10c5:	48 8b bd a8 fe ff ff 	mov    -0x158(%rbp),%rdi
    10cc:	41 b8 00 00 00 00    	mov    $0x0,%r8d
    10d2:	be 16 00 00 00       	mov    $0x16,%esi
    10d7:	ff d0                	callq  *%rax
    10d9:	89 45 ec             	mov    %eax,-0x14(%rbp)
    10dc:	83 7d ec 00          	cmpl   $0x0,-0x14(%rbp)
    10e0:	0f 8e 89 03 00 00    	jle    146f <dtls1_reassemble_fragment+0x571>
    10e6:	8b 45 ec             	mov    -0x14(%rbp),%eax
    10e9:	48 98                	cltq   
    10eb:	48 29 45 e0          	sub    %rax,-0x20(%rbp)
    10ef:	48 83 7d e0 00       	cmpq   $0x0,-0x20(%rbp)
    10f4:	75 a5                	jne    109b <dtls1_reassemble_fragment+0x19d>
    10f6:	b8 fd ff ff ff       	mov    $0xfffffffd,%eax
    10fb:	e9 a5 03 00 00       	jmpq   14a5 <dtls1_reassemble_fragment+0x5a7>
    1100:	48 8b 85 a8 fe ff ff 	mov    -0x158(%rbp),%rax
    1107:	48 8b 40 08          	mov    0x8(%rax),%rax
    110b:	48 8b 40 68          	mov    0x68(%rax),%rax
    110f:	48 8b 55 e0          	mov    -0x20(%rbp),%rdx
    1113:	48 8b 4d f8          	mov    -0x8(%rbp),%rcx
    1117:	48 8b 71 58          	mov    0x58(%rcx),%rsi
    111b:	48 8b 8d a0 fe ff ff 	mov    -0x160(%rbp),%rcx
    1122:	48 8b 49 18          	mov    0x18(%rcx),%rcx
    1126:	48 01 ce             	add    %rcx,%rsi
    1129:	48 8b bd a8 fe ff ff 	mov    -0x158(%rbp),%rdi
    1130:	41 b8 00 00 00 00    	mov    $0x0,%r8d
    1136:	89 d1                	mov    %edx,%ecx
    1138:	48 89 f2             	mov    %rsi,%rdx
    113b:	be 16 00 00 00       	mov    $0x16,%esi
    1140:	ff d0                	callq  *%rax
    1142:	89 45 ec             	mov    %eax,-0x14(%rbp)
    1145:	83 7d ec 00          	cmpl   $0x0,-0x14(%rbp)
    1149:	0f 8e 20 03 00 00    	jle    146f <dtls1_reassemble_fragment+0x571>
    114f:	8b 45 ec             	mov    -0x14(%rbp),%eax
    1152:	48 98                	cltq   
    1154:	48 3b 45 e0          	cmp    -0x20(%rbp),%rax
    1158:	0f 85 11 03 00 00    	jne    146f <dtls1_reassemble_fragment+0x571>
    115e:	48 8b 85 a0 fe ff ff 	mov    -0x160(%rbp),%rax
    1165:	48 8b 50 18          	mov    0x18(%rax),%rdx
    1169:	48 8b 45 e0          	mov    -0x20(%rbp),%rax
    116d:	48 01 d0             	add    %rdx,%rax
    1170:	48 89 c2             	mov    %rax,%rdx
    1173:	48 8b 85 a0 fe ff ff 	mov    -0x160(%rbp),%rax
    117a:	48 8b 40 18          	mov    0x18(%rax),%rax
    117e:	48 29 c2             	sub    %rax,%rdx
    1181:	48 89 d0             	mov    %rdx,%rax
    1184:	48 83 f8 08          	cmp    $0x8,%rax
    1188:	7f 74                	jg     11fe <dtls1_reassemble_fragment+0x300>
    118a:	48 8b 85 a0 fe ff ff 	mov    -0x160(%rbp),%rax
    1191:	48 8b 40 18          	mov    0x18(%rax),%rax
    1195:	48 89 45 d0          	mov    %rax,-0x30(%rbp)
    1199:	eb 46                	jmp    11e1 <dtls1_reassemble_fragment+0x2e3>
    119b:	48 8b 45 f8          	mov    -0x8(%rbp),%rax
    119f:	48 8b 50 60          	mov    0x60(%rax),%rdx
    11a3:	48 8b 45 d0          	mov    -0x30(%rbp),%rax
    11a7:	48 c1 f8 03          	sar    $0x3,%rax
    11ab:	48 01 c2             	add    %rax,%rdx
    11ae:	48 8b 45 f8          	mov    -0x8(%rbp),%rax
    11b2:	48 8b 48 60          	mov    0x60(%rax),%rcx
    11b6:	48 8b 45 d0          	mov    -0x30(%rbp),%rax
    11ba:	48 c1 f8 03          	sar    $0x3,%rax
    11be:	48 01 c8             	add    %rcx,%rax
    11c1:	0f b6 00             	movzbl (%rax),%eax
    11c4:	89 c6                	mov    %eax,%esi
    11c6:	48 8b 45 d0          	mov    -0x30(%rbp),%rax
    11ca:	83 e0 07             	and    $0x7,%eax
    11cd:	bf 01 00 00 00       	mov    $0x1,%edi
    11d2:	89 c1                	mov    %eax,%ecx
    11d4:	d3 e7                	shl    %cl,%edi
    11d6:	89 f8                	mov    %edi,%eax
    11d8:	09 f0                	or     %esi,%eax
    11da:	88 02                	mov    %al,(%rdx)
    11dc:	48 83 45 d0 01       	addq   $0x1,-0x30(%rbp)
    11e1:	48 8b 85 a0 fe ff ff 	mov    -0x160(%rbp),%rax
    11e8:	48 8b 50 18          	mov    0x18(%rax),%rdx
    11ec:	48 8b 45 e0          	mov    -0x20(%rbp),%rax
    11f0:	48 01 d0             	add    %rdx,%rax
    11f3:	48 3b 45 d0          	cmp    -0x30(%rbp),%rax
    11f7:	7f a2                	jg     119b <dtls1_reassemble_fragment+0x29d>
    11f9:	e9 0d 01 00 00       	jmpq   130b <dtls1_reassemble_fragment+0x40d>
    11fe:	48 8b 45 f8          	mov    -0x8(%rbp),%rax
    1202:	48 8b 50 60          	mov    0x60(%rax),%rdx
    1206:	48 8b 85 a0 fe ff ff 	mov    -0x160(%rbp),%rax
    120d:	48 8b 40 18          	mov    0x18(%rax),%rax
    1211:	48 c1 f8 03          	sar    $0x3,%rax
    1215:	48 01 c2             	add    %rax,%rdx
    1218:	48 8b 45 f8          	mov    -0x8(%rbp),%rax
    121c:	48 8b 48 60          	mov    0x60(%rax),%rcx
    1220:	48 8b 85 a0 fe ff ff 	mov    -0x160(%rbp),%rax
    1227:	48 8b 40 18          	mov    0x18(%rax),%rax
    122b:	48 c1 f8 03          	sar    $0x3,%rax
    122f:	48 01 c8             	add    %rcx,%rax
    1232:	0f b6 08             	movzbl (%rax),%ecx
    1235:	48 8b 85 a0 fe ff ff 	mov    -0x160(%rbp),%rax
    123c:	48 8b 40 18          	mov    0x18(%rax),%rax
    1240:	83 e0 07             	and    $0x7,%eax
    1243:	0f b6 80 00 00 00 00 	movzbl 0x0(%rax),%eax
    124a:	09 c8                	or     %ecx,%eax
    124c:	88 02                	mov    %al,(%rdx)
    124e:	48 8b 85 a0 fe ff ff 	mov    -0x160(%rbp),%rax
    1255:	48 8b 40 18          	mov    0x18(%rax),%rax
    1259:	48 c1 f8 03          	sar    $0x3,%rax
    125d:	48 83 c0 01          	add    $0x1,%rax
    1261:	48 89 45 c8          	mov    %rax,-0x38(%rbp)
    1265:	eb 17                	jmp    127e <dtls1_reassemble_fragment+0x380>
    1267:	48 8b 45 f8          	mov    -0x8(%rbp),%rax
    126b:	48 8b 50 60          	mov    0x60(%rax),%rdx
    126f:	48 8b 45 c8          	mov    -0x38(%rbp),%rax
    1273:	48 01 d0             	add    %rdx,%rax
    1276:	c6 00 ff             	movb   $0xff,(%rax)
    1279:	48 83 45 c8 01       	addq   $0x1,-0x38(%rbp)
    127e:	48 8b 85 a0 fe ff ff 	mov    -0x160(%rbp),%rax
    1285:	48 8b 50 18          	mov    0x18(%rax),%rdx
    1289:	48 8b 45 e0          	mov    -0x20(%rbp),%rax
    128d:	48 01 d0             	add    %rdx,%rax
    1290:	48 83 e8 01          	sub    $0x1,%rax
    1294:	48 c1 f8 03          	sar    $0x3,%rax
    1298:	48 3b 45 c8          	cmp    -0x38(%rbp),%rax
    129c:	7f c9                	jg     1267 <dtls1_reassemble_fragment+0x369>
    129e:	48 8b 45 f8          	mov    -0x8(%rbp),%rax
    12a2:	48 8b 50 60          	mov    0x60(%rax),%rdx
    12a6:	48 8b 85 a0 fe ff ff 	mov    -0x160(%rbp),%rax
    12ad:	48 8b 48 18          	mov    0x18(%rax),%rcx
    12b1:	48 8b 45 e0          	mov    -0x20(%rbp),%rax
    12b5:	48 01 c8             	add    %rcx,%rax
    12b8:	48 83 e8 01          	sub    $0x1,%rax
    12bc:	48 c1 f8 03          	sar    $0x3,%rax
    12c0:	48 01 c2             	add    %rax,%rdx
    12c3:	48 8b 45 f8          	mov    -0x8(%rbp),%rax
    12c7:	48 8b 48 60          	mov    0x60(%rax),%rcx
    12cb:	48 8b 85 a0 fe ff ff 	mov    -0x160(%rbp),%rax
    12d2:	48 8b 70 18          	mov    0x18(%rax),%rsi
    12d6:	48 8b 45 e0          	mov    -0x20(%rbp),%rax
    12da:	48 01 f0             	add    %rsi,%rax
    12dd:	48 83 e8 01          	sub    $0x1,%rax
    12e1:	48 c1 f8 03          	sar    $0x3,%rax
    12e5:	48 01 c8             	add    %rcx,%rax
    12e8:	0f b6 08             	movzbl (%rax),%ecx
    12eb:	48 8b 85 a0 fe ff ff 	mov    -0x160(%rbp),%rax
    12f2:	48 8b 70 18          	mov    0x18(%rax),%rsi
    12f6:	48 8b 45 e0          	mov    -0x20(%rbp),%rax
    12fa:	48 01 f0             	add    %rsi,%rax
    12fd:	83 e0 07             	and    $0x7,%eax
    1300:	0f b6 80 00 00 00 00 	movzbl 0x0(%rax),%eax
    1307:	09 c8                	or     %ecx,%eax
    1309:	88 02                	mov    %al,(%rdx)
    130b:	48 8b 85 a0 fe ff ff 	mov    -0x160(%rbp),%rax
    1312:	48 8b 40 08          	mov    0x8(%rax),%rax
    1316:	48 85 c0             	test   %rax,%rax
    1319:	7f 14                	jg     132f <dtls1_reassemble_fragment+0x431>
    131b:	ba 00 00 00 00       	mov    $0x0,%edx
    1320:	be 99 02 00 00       	mov    $0x299,%esi
    1325:	bf 00 00 00 00       	mov    $0x0,%edi
    132a:	e8 00 00 00 00       	callq  132f <dtls1_reassemble_fragment+0x431>
    132f:	c7 45 e8 01 00 00 00 	movl   $0x1,-0x18(%rbp)
    1336:	48 8b 45 f8          	mov    -0x8(%rbp),%rax
    133a:	48 8b 50 60          	mov    0x60(%rax),%rdx
    133e:	48 8b 85 a0 fe ff ff 	mov    -0x160(%rbp),%rax
    1345:	48 8b 40 08          	mov    0x8(%rax),%rax
    1349:	48 83 e8 01          	sub    $0x1,%rax
    134d:	48 c1 f8 03          	sar    $0x3,%rax
    1351:	48 01 d0             	add    %rdx,%rax
    1354:	0f b6 10             	movzbl (%rax),%edx
    1357:	48 8b 85 a0 fe ff ff 	mov    -0x160(%rbp),%rax
    135e:	48 8b 40 08          	mov    0x8(%rax),%rax
    1362:	83 e0 07             	and    $0x7,%eax
    1365:	0f b6 80 00 00 00 00 	movzbl 0x0(%rax),%eax
    136c:	38 c2                	cmp    %al,%dl
    136e:	74 07                	je     1377 <dtls1_reassemble_fragment+0x479>
    1370:	c7 45 e8 00 00 00 00 	movl   $0x0,-0x18(%rbp)
    1377:	83 7d e8 00          	cmpl   $0x0,-0x18(%rbp)
    137b:	74 48                	je     13c5 <dtls1_reassemble_fragment+0x4c7>
    137d:	48 8b 85 a0 fe ff ff 	mov    -0x160(%rbp),%rax
    1384:	48 8b 40 08          	mov    0x8(%rax),%rax
    1388:	48 83 e8 01          	sub    $0x1,%rax
    138c:	48 c1 f8 03          	sar    $0x3,%rax
    1390:	48 83 e8 01          	sub    $0x1,%rax
    1394:	48 89 45 c0          	mov    %rax,-0x40(%rbp)
    1398:	eb 24                	jmp    13be <dtls1_reassemble_fragment+0x4c0>
    139a:	48 8b 45 f8          	mov    -0x8(%rbp),%rax
    139e:	48 8b 50 60          	mov    0x60(%rax),%rdx
    13a2:	48 8b 45 c0          	mov    -0x40(%rbp),%rax
    13a6:	48 01 d0             	add    %rdx,%rax
    13a9:	0f b6 00             	movzbl (%rax),%eax
    13ac:	3c ff                	cmp    $0xff,%al
    13ae:	74 09                	je     13b9 <dtls1_reassemble_fragment+0x4bb>
    13b0:	c7 45 e8 00 00 00 00 	movl   $0x0,-0x18(%rbp)
    13b7:	eb 0c                	jmp    13c5 <dtls1_reassemble_fragment+0x4c7>
    13b9:	48 83 6d c0 01       	subq   $0x1,-0x40(%rbp)
    13be:	48 83 7d c0 00       	cmpq   $0x0,-0x40(%rbp)
    13c3:	79 d5                	jns    139a <dtls1_reassemble_fragment+0x49c>
    13c5:	83 7d e8 00          	cmpl   $0x0,-0x18(%rbp)
    13c9:	74 1c                	je     13e7 <dtls1_reassemble_fragment+0x4e9>
    13cb:	48 8b 45 f8          	mov    -0x8(%rbp),%rax
    13cf:	48 8b 40 60          	mov    0x60(%rax),%rax
    13d3:	48 89 c7             	mov    %rax,%rdi
    13d6:	e8 00 00 00 00       	callq  13db <dtls1_reassemble_fragment+0x4dd>
    13db:	48 8b 45 f8          	mov    -0x8(%rbp),%rax
    13df:	48 c7 40 60 00 00 00 	movq   $0x0,0x60(%rax)
    13e6:	00 
    13e7:	48 83 7d f0 00       	cmpq   $0x0,-0x10(%rbp)
    13ec:	75 7a                	jne    1468 <dtls1_reassemble_fragment+0x56a>
    13ee:	48 8d 45 b0          	lea    -0x50(%rbp),%rax
    13f2:	ba 08 00 00 00       	mov    $0x8,%edx
    13f7:	be 00 00 00 00       	mov    $0x0,%esi
    13fc:	48 89 c7             	mov    %rax,%rdi
    13ff:	e8 00 00 00 00       	callq  1404 <dtls1_reassemble_fragment+0x506>
    1404:	48 8b 85 a0 fe ff ff 	mov    -0x160(%rbp),%rax
    140b:	0f b7 40 10          	movzwl 0x10(%rax),%eax
    140f:	66 c1 e8 08          	shr    $0x8,%ax
    1413:	88 45 b6             	mov    %al,-0x4a(%rbp)
    1416:	48 8b 85 a0 fe ff ff 	mov    -0x160(%rbp),%rax
    141d:	0f b7 40 10          	movzwl 0x10(%rax),%eax
    1421:	88 45 b7             	mov    %al,-0x49(%rbp)
    1424:	48 8b 55 f8          	mov    -0x8(%rbp),%rdx
    1428:	48 8d 45 b0          	lea    -0x50(%rbp),%rax
    142c:	48 89 d6             	mov    %rdx,%rsi
    142f:	48 89 c7             	mov    %rax,%rdi
    1432:	e8 00 00 00 00       	callq  1437 <dtls1_reassemble_fragment+0x539>
    1437:	48 89 45 f0          	mov    %rax,-0x10(%rbp)
    143b:	48 83 7d f0 00       	cmpq   $0x0,-0x10(%rbp)
    1440:	75 02                	jne    1444 <dtls1_reassemble_fragment+0x546>
    1442:	eb 2b                	jmp    146f <dtls1_reassemble_fragment+0x571>
    1444:	48 8b 85 a8 fe ff ff 	mov    -0x158(%rbp),%rax
    144b:	48 8b 80 88 00 00 00 	mov    0x88(%rax),%rax
    1452:	48 8b 80 60 02 00 00 	mov    0x260(%rax),%rax
    1459:	48 8b 55 f0          	mov    -0x10(%rbp),%rdx
    145d:	48 89 d6             	mov    %rdx,%rsi
    1460:	48 89 c7             	mov    %rax,%rdi
    1463:	e8 00 00 00 00       	callq  1468 <dtls1_reassemble_fragment+0x56a>
    1468:	b8 fd ff ff ff       	mov    $0xfffffffd,%eax
    146d:	eb 36                	jmp    14a5 <dtls1_reassemble_fragment+0x5a7>
    146f:	48 83 7d f8 00       	cmpq   $0x0,-0x8(%rbp)
    1474:	74 0c                	je     1482 <dtls1_reassemble_fragment+0x584>
    1476:	48 8b 45 f8          	mov    -0x8(%rbp),%rax
    147a:	48 89 c7             	mov    %rax,%rdi
    147d:	e8 a9 ec ff ff       	callq  12b <dtls1_hm_fragment_free>
    1482:	48 83 7d f0 00       	cmpq   $0x0,-0x10(%rbp)
    1487:	74 0c                	je     1495 <dtls1_reassemble_fragment+0x597>
    1489:	48 8b 45 f0          	mov    -0x10(%rbp),%rax
    148d:	48 89 c7             	mov    %rax,%rdi
    1490:	e8 00 00 00 00       	callq  1495 <dtls1_reassemble_fragment+0x597>
    1495:	48 8b 85 98 fe ff ff 	mov    -0x168(%rbp),%rax
    149c:	c7 00 00 00 00 00    	movl   $0x0,(%rax)
    14a2:	8b 45 ec             	mov    -0x14(%rbp),%eax
    14a5:	c9                   	leaveq 
    14a6:	c3                   	retq   

00000000000014a7 <dtls1_process_out_of_seq_message>:
    14a7:	55                   	push   %rbp
    14a8:	48 89 e5             	mov    %rsp,%rbp
    14ab:	48 81 ec 50 01 00 00 	sub    $0x150,%rsp
    14b2:	48 89 bd c8 fe ff ff 	mov    %rdi,-0x138(%rbp)
    14b9:	48 89 b5 c0 fe ff ff 	mov    %rsi,-0x140(%rbp)
    14c0:	48 89 95 b8 fe ff ff 	mov    %rdx,-0x148(%rbp)
    14c7:	c7 45 fc ff ff ff ff 	movl   $0xffffffff,-0x4(%rbp)
    14ce:	48 c7 45 f0 00 00 00 	movq   $0x0,-0x10(%rbp)
    14d5:	00 
    14d6:	48 c7 45 e8 00 00 00 	movq   $0x0,-0x18(%rbp)
    14dd:	00 
    14de:	48 8b 85 c0 fe ff ff 	mov    -0x140(%rbp),%rax
    14e5:	48 8b 40 20          	mov    0x20(%rax),%rax
    14e9:	48 89 45 e0          	mov    %rax,-0x20(%rbp)
    14ed:	48 8b 85 c0 fe ff ff 	mov    -0x140(%rbp),%rax
    14f4:	48 8b 50 18          	mov    0x18(%rax),%rdx
    14f8:	48 8b 45 e0          	mov    -0x20(%rbp),%rax
    14fc:	48 01 c2             	add    %rax,%rdx
    14ff:	48 8b 85 c0 fe ff ff 	mov    -0x140(%rbp),%rax
    1506:	48 8b 40 08          	mov    0x8(%rax),%rax
    150a:	48 39 c2             	cmp    %rax,%rdx
    150d:	76 05                	jbe    1514 <dtls1_process_out_of_seq_message+0x6d>
    150f:	e9 af 02 00 00       	jmpq   17c3 <dtls1_process_out_of_seq_message+0x31c>
    1514:	48 8d 45 d0          	lea    -0x30(%rbp),%rax
    1518:	ba 08 00 00 00       	mov    $0x8,%edx
    151d:	be 00 00 00 00       	mov    $0x0,%esi
    1522:	48 89 c7             	mov    %rax,%rdi
    1525:	e8 00 00 00 00       	callq  152a <dtls1_process_out_of_seq_message+0x83>
    152a:	48 8b 85 c0 fe ff ff 	mov    -0x140(%rbp),%rax
    1531:	0f b7 40 10          	movzwl 0x10(%rax),%eax
    1535:	66 c1 e8 08          	shr    $0x8,%ax
    1539:	88 45 d6             	mov    %al,-0x2a(%rbp)
    153c:	48 8b 85 c0 fe ff ff 	mov    -0x140(%rbp),%rax
    1543:	0f b7 40 10          	movzwl 0x10(%rax),%eax
    1547:	88 45 d7             	mov    %al,-0x29(%rbp)
    154a:	48 8b 85 c8 fe ff ff 	mov    -0x138(%rbp),%rax
    1551:	48 8b 80 88 00 00 00 	mov    0x88(%rax),%rax
    1558:	48 8b 80 60 02 00 00 	mov    0x260(%rax),%rax
    155f:	48 8d 55 d0          	lea    -0x30(%rbp),%rdx
    1563:	48 89 d6             	mov    %rdx,%rsi
    1566:	48 89 c7             	mov    %rax,%rdi
    1569:	e8 00 00 00 00       	callq  156e <dtls1_process_out_of_seq_message+0xc7>
    156e:	48 89 45 e8          	mov    %rax,-0x18(%rbp)
    1572:	48 83 7d e8 00       	cmpq   $0x0,-0x18(%rbp)
    1577:	74 19                	je     1592 <dtls1_process_out_of_seq_message+0xeb>
    1579:	48 8b 85 c0 fe ff ff 	mov    -0x140(%rbp),%rax
    1580:	48 8b 40 08          	mov    0x8(%rax),%rax
    1584:	48 3b 45 e0          	cmp    -0x20(%rbp),%rax
    1588:	76 08                	jbe    1592 <dtls1_process_out_of_seq_message+0xeb>
    158a:	48 c7 45 e8 00 00 00 	movq   $0x0,-0x18(%rbp)
    1591:	00 
    1592:	48 8b 85 c0 fe ff ff 	mov    -0x140(%rbp),%rax
    1599:	0f b7 50 10          	movzwl 0x10(%rax),%edx
    159d:	48 8b 85 c8 fe ff ff 	mov    -0x138(%rbp),%rax
    15a4:	48 8b 80 88 00 00 00 	mov    0x88(%rax),%rax
    15ab:	0f b7 80 34 02 00 00 	movzwl 0x234(%rax),%eax
    15b2:	66 39 c2             	cmp    %ax,%dx
    15b5:	76 5c                	jbe    1613 <dtls1_process_out_of_seq_message+0x16c>
    15b7:	48 8b 85 c0 fe ff ff 	mov    -0x140(%rbp),%rax
    15be:	0f b7 40 10          	movzwl 0x10(%rax),%eax
    15c2:	0f b7 d0             	movzwl %ax,%edx
    15c5:	48 8b 85 c8 fe ff ff 	mov    -0x138(%rbp),%rax
    15cc:	48 8b 80 88 00 00 00 	mov    0x88(%rax),%rax
    15d3:	0f b7 80 34 02 00 00 	movzwl 0x234(%rax),%eax
    15da:	0f b7 c0             	movzwl %ax,%eax
    15dd:	83 c0 0a             	add    $0xa,%eax
    15e0:	39 c2                	cmp    %eax,%edx
    15e2:	7f 2f                	jg     1613 <dtls1_process_out_of_seq_message+0x16c>
    15e4:	48 83 7d e8 00       	cmpq   $0x0,-0x18(%rbp)
    15e9:	75 28                	jne    1613 <dtls1_process_out_of_seq_message+0x16c>
    15eb:	48 8b 85 c8 fe ff ff 	mov    -0x138(%rbp),%rax
    15f2:	48 8b 80 88 00 00 00 	mov    0x88(%rax),%rax
    15f9:	0f b7 80 34 02 00 00 	movzwl 0x234(%rax),%eax
    1600:	66 85 c0             	test   %ax,%ax
    1603:	75 70                	jne    1675 <dtls1_process_out_of_seq_message+0x1ce>
    1605:	48 8b 85 c0 fe ff ff 	mov    -0x140(%rbp),%rax
    160c:	0f b6 00             	movzbl (%rax),%eax
    160f:	3c 14                	cmp    $0x14,%al
    1611:	75 62                	jne    1675 <dtls1_process_out_of_seq_message+0x1ce>
    1613:	eb 54                	jmp    1669 <dtls1_process_out_of_seq_message+0x1c2>
    1615:	48 8b 85 c8 fe ff ff 	mov    -0x138(%rbp),%rax
    161c:	48 8b 40 08          	mov    0x8(%rax),%rax
    1620:	48 8b 40 68          	mov    0x68(%rax),%rax
    1624:	ba 00 01 00 00       	mov    $0x100,%edx
    1629:	48 81 7d e0 00 01 00 	cmpq   $0x100,-0x20(%rbp)
    1630:	00 
    1631:	48 0f 46 55 e0       	cmovbe -0x20(%rbp),%rdx
    1636:	89 d1                	mov    %edx,%ecx
    1638:	48 8d 95 d0 fe ff ff 	lea    -0x130(%rbp),%rdx
    163f:	48 8b bd c8 fe ff ff 	mov    -0x138(%rbp),%rdi
    1646:	41 b8 00 00 00 00    	mov    $0x0,%r8d
    164c:	be 16 00 00 00       	mov    $0x16,%esi
    1651:	ff d0                	callq  *%rax
    1653:	89 45 fc             	mov    %eax,-0x4(%rbp)
    1656:	83 7d fc 00          	cmpl   $0x0,-0x4(%rbp)
    165a:	0f 8e 63 01 00 00    	jle    17c3 <dtls1_process_out_of_seq_message+0x31c>
    1660:	8b 45 fc             	mov    -0x4(%rbp),%eax
    1663:	48 98                	cltq   
    1665:	48 29 45 e0          	sub    %rax,-0x20(%rbp)
    1669:	48 83 7d e0 00       	cmpq   $0x0,-0x20(%rbp)
    166e:	75 a5                	jne    1615 <dtls1_process_out_of_seq_message+0x16e>
    1670:	e9 47 01 00 00       	jmpq   17bc <dtls1_process_out_of_seq_message+0x315>
    1675:	48 83 7d e0 00       	cmpq   $0x0,-0x20(%rbp)
    167a:	74 36                	je     16b2 <dtls1_process_out_of_seq_message+0x20b>
    167c:	48 8b 85 c0 fe ff ff 	mov    -0x140(%rbp),%rax
    1683:	48 8b 40 08          	mov    0x8(%rax),%rax
    1687:	48 3b 45 e0          	cmp    -0x20(%rbp),%rax
    168b:	76 25                	jbe    16b2 <dtls1_process_out_of_seq_message+0x20b>
    168d:	48 8b 95 b8 fe ff ff 	mov    -0x148(%rbp),%rdx
    1694:	48 8b 8d c0 fe ff ff 	mov    -0x140(%rbp),%rcx
    169b:	48 8b 85 c8 fe ff ff 	mov    -0x138(%rbp),%rax
    16a2:	48 89 ce             	mov    %rcx,%rsi
    16a5:	48 89 c7             	mov    %rax,%rdi
    16a8:	e8 51 f8 ff ff       	callq  efe <dtls1_reassemble_fragment>
    16ad:	e9 47 01 00 00       	jmpq   17f9 <dtls1_process_out_of_seq_message+0x352>
    16b2:	48 8b 45 e0          	mov    -0x20(%rbp),%rax
    16b6:	be 00 00 00 00       	mov    $0x0,%esi
    16bb:	48 89 c7             	mov    %rax,%rdi
    16be:	e8 49 e9 ff ff       	callq  c <dtls1_hm_fragment_new>
    16c3:	48 89 45 f0          	mov    %rax,-0x10(%rbp)
    16c7:	48 83 7d f0 00       	cmpq   $0x0,-0x10(%rbp)
    16cc:	75 05                	jne    16d3 <dtls1_process_out_of_seq_message+0x22c>
    16ce:	e9 f0 00 00 00       	jmpq   17c3 <dtls1_process_out_of_seq_message+0x31c>
    16d3:	48 8b 45 f0          	mov    -0x10(%rbp),%rax
    16d7:	48 8b 8d c0 fe ff ff 	mov    -0x140(%rbp),%rcx
    16de:	ba 58 00 00 00       	mov    $0x58,%edx
    16e3:	48 89 ce             	mov    %rcx,%rsi
    16e6:	48 89 c7             	mov    %rax,%rdi
    16e9:	e8 00 00 00 00       	callq  16ee <dtls1_process_out_of_seq_message+0x247>
    16ee:	48 83 7d e0 00       	cmpq   $0x0,-0x20(%rbp)
    16f3:	74 4d                	je     1742 <dtls1_process_out_of_seq_message+0x29b>
    16f5:	48 8b 85 c8 fe ff ff 	mov    -0x138(%rbp),%rax
    16fc:	48 8b 40 08          	mov    0x8(%rax),%rax
    1700:	48 8b 40 68          	mov    0x68(%rax),%rax
    1704:	48 8b 55 e0          	mov    -0x20(%rbp),%rdx
    1708:	89 d1                	mov    %edx,%ecx
    170a:	48 8b 55 f0          	mov    -0x10(%rbp),%rdx
    170e:	48 8b 52 58          	mov    0x58(%rdx),%rdx
    1712:	48 8b bd c8 fe ff ff 	mov    -0x138(%rbp),%rdi
    1719:	41 b8 00 00 00 00    	mov    $0x0,%r8d
    171f:	be 16 00 00 00       	mov    $0x16,%esi
    1724:	ff d0                	callq  *%rax
    1726:	89 45 fc             	mov    %eax,-0x4(%rbp)
    1729:	83 7d fc 00          	cmpl   $0x0,-0x4(%rbp)
    172d:	0f 8e 90 00 00 00    	jle    17c3 <dtls1_process_out_of_seq_message+0x31c>
    1733:	8b 45 fc             	mov    -0x4(%rbp),%eax
    1736:	48 98                	cltq   
    1738:	48 3b 45 e0          	cmp    -0x20(%rbp),%rax
    173c:	0f 85 81 00 00 00    	jne    17c3 <dtls1_process_out_of_seq_message+0x31c>
    1742:	48 8d 45 d0          	lea    -0x30(%rbp),%rax
    1746:	ba 08 00 00 00       	mov    $0x8,%edx
    174b:	be 00 00 00 00       	mov    $0x0,%esi
    1750:	48 89 c7             	mov    %rax,%rdi
    1753:	e8 00 00 00 00       	callq  1758 <dtls1_process_out_of_seq_message+0x2b1>
    1758:	48 8b 85 c0 fe ff ff 	mov    -0x140(%rbp),%rax
    175f:	0f b7 40 10          	movzwl 0x10(%rax),%eax
    1763:	66 c1 e8 08          	shr    $0x8,%ax
    1767:	88 45 d6             	mov    %al,-0x2a(%rbp)
    176a:	48 8b 85 c0 fe ff ff 	mov    -0x140(%rbp),%rax
    1771:	0f b7 40 10          	movzwl 0x10(%rax),%eax
    1775:	88 45 d7             	mov    %al,-0x29(%rbp)
    1778:	48 8b 55 f0          	mov    -0x10(%rbp),%rdx
    177c:	48 8d 45 d0          	lea    -0x30(%rbp),%rax
    1780:	48 89 d6             	mov    %rdx,%rsi
    1783:	48 89 c7             	mov    %rax,%rdi
    1786:	e8 00 00 00 00       	callq  178b <dtls1_process_out_of_seq_message+0x2e4>
    178b:	48 89 45 e8          	mov    %rax,-0x18(%rbp)
    178f:	48 83 7d e8 00       	cmpq   $0x0,-0x18(%rbp)
    1794:	75 02                	jne    1798 <dtls1_process_out_of_seq_message+0x2f1>
    1796:	eb 2b                	jmp    17c3 <dtls1_process_out_of_seq_message+0x31c>
    1798:	48 8b 85 c8 fe ff ff 	mov    -0x138(%rbp),%rax
    179f:	48 8b 80 88 00 00 00 	mov    0x88(%rax),%rax
    17a6:	48 8b 80 60 02 00 00 	mov    0x260(%rax),%rax
    17ad:	48 8b 55 e8          	mov    -0x18(%rbp),%rdx
    17b1:	48 89 d6             	mov    %rdx,%rsi
    17b4:	48 89 c7             	mov    %rax,%rdi
    17b7:	e8 00 00 00 00       	callq  17bc <dtls1_process_out_of_seq_message+0x315>
    17bc:	b8 fd ff ff ff       	mov    $0xfffffffd,%eax
    17c1:	eb 36                	jmp    17f9 <dtls1_process_out_of_seq_message+0x352>
    17c3:	48 83 7d f0 00       	cmpq   $0x0,-0x10(%rbp)
    17c8:	74 0c                	je     17d6 <dtls1_process_out_of_seq_message+0x32f>
    17ca:	48 8b 45 f0          	mov    -0x10(%rbp),%rax
    17ce:	48 89 c7             	mov    %rax,%rdi
    17d1:	e8 55 e9 ff ff       	callq  12b <dtls1_hm_fragment_free>
    17d6:	48 83 7d e8 00       	cmpq   $0x0,-0x18(%rbp)
    17db:	74 0c                	je     17e9 <dtls1_process_out_of_seq_message+0x342>
    17dd:	48 8b 45 e8          	mov    -0x18(%rbp),%rax
    17e1:	48 89 c7             	mov    %rax,%rdi
    17e4:	e8 00 00 00 00       	callq  17e9 <dtls1_process_out_of_seq_message+0x342>
    17e9:	48 8b 85 b8 fe ff ff 	mov    -0x148(%rbp),%rax
    17f0:	c7 00 00 00 00 00    	movl   $0x0,(%rax)
    17f6:	8b 45 fc             	mov    -0x4(%rbp),%eax
    17f9:	c9                   	leaveq 
    17fa:	c3                   	retq   

00000000000017fb <dtls1_get_message_fragment>:
    17fb:	55                   	push   %rbp
    17fc:	48 89 e5             	mov    %rsp,%rbp
    17ff:	48 81 ec d0 00 00 00 	sub    $0xd0,%rsp
    1806:	48 89 bd 58 ff ff ff 	mov    %rdi,-0xa8(%rbp)
    180d:	89 b5 54 ff ff ff    	mov    %esi,-0xac(%rbp)
    1813:	89 95 50 ff ff ff    	mov    %edx,-0xb0(%rbp)
    1819:	48 89 8d 48 ff ff ff 	mov    %rcx,-0xb8(%rbp)
    1820:	4c 89 85 40 ff ff ff 	mov    %r8,-0xc0(%rbp)
    1827:	48 8b 95 40 ff ff ff 	mov    -0xc0(%rbp),%rdx
    182e:	48 8b 8d 48 ff ff ff 	mov    -0xb8(%rbp),%rcx
    1835:	48 8b 85 58 ff ff ff 	mov    -0xa8(%rbp),%rax
    183c:	48 89 ce             	mov    %rcx,%rsi
    183f:	48 89 c7             	mov    %rax,%rdi
    1842:	e8 39 f5 ff ff       	callq  d80 <dtls1_retrieve_buffered_fragment>
    1847:	48 98                	cltq   
    1849:	48 89 45 f0          	mov    %rax,-0x10(%rbp)
    184d:	48 83 7d f0 00       	cmpq   $0x0,-0x10(%rbp)
    1852:	75 0d                	jne    1861 <dtls1_get_message_fragment+0x66>
    1854:	48 8b 85 40 ff ff ff 	mov    -0xc0(%rbp),%rax
    185b:	8b 00                	mov    (%rax),%eax
    185d:	85 c0                	test   %eax,%eax
    185f:	74 26                	je     1887 <dtls1_get_message_fragment+0x8c>
    1861:	48 8b 85 40 ff ff ff 	mov    -0xc0(%rbp),%rax
    1868:	8b 00                	mov    (%rax),%eax
    186a:	85 c0                	test   %eax,%eax
    186c:	74 10                	je     187e <dtls1_get_message_fragment+0x83>
    186e:	48 8b 45 f0          	mov    -0x10(%rbp),%rax
    1872:	89 c2                	mov    %eax,%edx
    1874:	48 8b 85 58 ff ff ff 	mov    -0xa8(%rbp),%rax
    187b:	89 50 60             	mov    %edx,0x60(%rax)
    187e:	48 8b 45 f0          	mov    -0x10(%rbp),%rax
    1882:	e9 e6 03 00 00       	jmpq   1c6d <dtls1_get_message_fragment+0x472>
    1887:	48 8b 85 58 ff ff ff 	mov    -0xa8(%rbp),%rax
    188e:	48 8b 40 08          	mov    0x8(%rax),%rax
    1892:	48 8b 40 68          	mov    0x68(%rax),%rax
    1896:	48 8d 55 c0          	lea    -0x40(%rbp),%rdx
    189a:	48 8b bd 58 ff ff ff 	mov    -0xa8(%rbp),%rdi
    18a1:	41 b8 00 00 00 00    	mov    $0x0,%r8d
    18a7:	b9 0c 00 00 00       	mov    $0xc,%ecx
    18ac:	be 16 00 00 00       	mov    $0x16,%esi
    18b1:	ff d0                	callq  *%rax
    18b3:	89 45 fc             	mov    %eax,-0x4(%rbp)
    18b6:	83 7d fc 00          	cmpl   $0x0,-0x4(%rbp)
    18ba:	7f 25                	jg     18e1 <dtls1_get_message_fragment+0xe6>
    18bc:	48 8b 85 58 ff ff ff 	mov    -0xa8(%rbp),%rax
    18c3:	c7 40 28 03 00 00 00 	movl   $0x3,0x28(%rax)
    18ca:	48 8b 85 40 ff ff ff 	mov    -0xc0(%rbp),%rax
    18d1:	c7 00 00 00 00 00    	movl   $0x0,(%rax)
    18d7:	8b 45 fc             	mov    -0x4(%rbp),%eax
    18da:	48 98                	cltq   
    18dc:	e9 8c 03 00 00       	jmpq   1c6d <dtls1_get_message_fragment+0x472>
    18e1:	83 7d fc 0c          	cmpl   $0xc,-0x4(%rbp)
    18e5:	74 2b                	je     1912 <dtls1_get_message_fragment+0x117>
    18e7:	c7 45 f8 0a 00 00 00 	movl   $0xa,-0x8(%rbp)
    18ee:	41 b8 2c 03 00 00    	mov    $0x32c,%r8d
    18f4:	b9 00 00 00 00       	mov    $0x0,%ecx
    18f9:	ba f4 00 00 00       	mov    $0xf4,%edx
    18fe:	be fd 00 00 00       	mov    $0xfd,%esi
    1903:	bf 14 00 00 00       	mov    $0x14,%edi
    1908:	e8 00 00 00 00       	callq  190d <dtls1_get_message_fragment+0x112>
    190d:	e9 22 03 00 00       	jmpq   1c34 <dtls1_get_message_fragment+0x439>
    1912:	48 8d 95 60 ff ff ff 	lea    -0xa0(%rbp),%rdx
    1919:	48 8d 45 c0          	lea    -0x40(%rbp),%rax
    191d:	48 89 d6             	mov    %rdx,%rsi
    1920:	48 89 c7             	mov    %rax,%rdi
    1923:	e8 00 00 00 00       	callq  1928 <dtls1_get_message_fragment+0x12d>
    1928:	0f b7 95 70 ff ff ff 	movzwl -0x90(%rbp),%edx
    192f:	48 8b 85 58 ff ff ff 	mov    -0xa8(%rbp),%rax
    1936:	48 8b 80 88 00 00 00 	mov    0x88(%rax),%rax
    193d:	0f b7 80 34 02 00 00 	movzwl 0x234(%rax),%eax
    1944:	66 39 c2             	cmp    %ax,%dx
    1947:	74 4c                	je     1995 <dtls1_get_message_fragment+0x19a>
    1949:	48 8b 85 58 ff ff ff 	mov    -0xa8(%rbp),%rax
    1950:	48 8b 80 88 00 00 00 	mov    0x88(%rax),%rax
    1957:	8b 80 78 03 00 00    	mov    0x378(%rax),%eax
    195d:	85 c0                	test   %eax,%eax
    195f:	74 0d                	je     196e <dtls1_get_message_fragment+0x173>
    1961:	0f b7 85 70 ff ff ff 	movzwl -0x90(%rbp),%eax
    1968:	66 83 f8 01          	cmp    $0x1,%ax
    196c:	74 27                	je     1995 <dtls1_get_message_fragment+0x19a>
    196e:	48 8b 95 40 ff ff ff 	mov    -0xc0(%rbp),%rdx
    1975:	48 8d 8d 60 ff ff ff 	lea    -0xa0(%rbp),%rcx
    197c:	48 8b 85 58 ff ff ff 	mov    -0xa8(%rbp),%rax
    1983:	48 89 ce             	mov    %rcx,%rsi
    1986:	48 89 c7             	mov    %rax,%rdi
    1989:	e8 19 fb ff ff       	callq  14a7 <dtls1_process_out_of_seq_message>
    198e:	48 98                	cltq   
    1990:	e9 d8 02 00 00       	jmpq   1c6d <dtls1_get_message_fragment+0x472>
    1995:	48 8b 85 68 ff ff ff 	mov    -0x98(%rbp),%rax
    199c:	48 89 45 e8          	mov    %rax,-0x18(%rbp)
    19a0:	48 8b 85 78 ff ff ff 	mov    -0x88(%rbp),%rax
    19a7:	48 89 45 e0          	mov    %rax,-0x20(%rbp)
    19ab:	48 8b 45 80          	mov    -0x80(%rbp),%rax
    19af:	48 89 45 f0          	mov    %rax,-0x10(%rbp)
    19b3:	48 83 7d f0 00       	cmpq   $0x0,-0x10(%rbp)
    19b8:	74 31                	je     19eb <dtls1_get_message_fragment+0x1f0>
    19ba:	48 8b 45 f0          	mov    -0x10(%rbp),%rax
    19be:	48 3b 45 e8          	cmp    -0x18(%rbp),%rax
    19c2:	73 27                	jae    19eb <dtls1_get_message_fragment+0x1f0>
    19c4:	48 8b 95 40 ff ff ff 	mov    -0xc0(%rbp),%rdx
    19cb:	48 8d 8d 60 ff ff ff 	lea    -0xa0(%rbp),%rcx
    19d2:	48 8b 85 58 ff ff ff 	mov    -0xa8(%rbp),%rax
    19d9:	48 89 ce             	mov    %rcx,%rsi
    19dc:	48 89 c7             	mov    %rax,%rdi
    19df:	e8 1a f5 ff ff       	callq  efe <dtls1_reassemble_fragment>
    19e4:	48 98                	cltq   
    19e6:	e9 82 02 00 00       	jmpq   1c6d <dtls1_get_message_fragment+0x472>
    19eb:	48 8b 85 58 ff ff ff 	mov    -0xa8(%rbp),%rax
    19f2:	8b 40 38             	mov    0x38(%rax),%eax
    19f5:	85 c0                	test   %eax,%eax
    19f7:	0f 85 17 01 00 00    	jne    1b14 <dtls1_get_message_fragment+0x319>
    19fd:	48 8b 85 58 ff ff ff 	mov    -0xa8(%rbp),%rax
    1a04:	48 8b 80 88 00 00 00 	mov    0x88(%rax),%rax
    1a0b:	48 8b 80 f8 02 00 00 	mov    0x2f8(%rax),%rax
    1a12:	48 85 c0             	test   %rax,%rax
    1a15:	0f 85 f9 00 00 00    	jne    1b14 <dtls1_get_message_fragment+0x319>
    1a1b:	0f b6 45 c0          	movzbl -0x40(%rbp),%eax
    1a1f:	84 c0                	test   %al,%al
    1a21:	0f 85 ed 00 00 00    	jne    1b14 <dtls1_get_message_fragment+0x319>
    1a27:	0f b6 45 c1          	movzbl -0x3f(%rbp),%eax
    1a2b:	84 c0                	test   %al,%al
    1a2d:	0f 85 b6 00 00 00    	jne    1ae9 <dtls1_get_message_fragment+0x2ee>
    1a33:	0f b6 45 c2          	movzbl -0x3e(%rbp),%eax
    1a37:	84 c0                	test   %al,%al
    1a39:	0f 85 aa 00 00 00    	jne    1ae9 <dtls1_get_message_fragment+0x2ee>
    1a3f:	0f b6 45 c3          	movzbl -0x3d(%rbp),%eax
    1a43:	84 c0                	test   %al,%al
    1a45:	0f 85 9e 00 00 00    	jne    1ae9 <dtls1_get_message_fragment+0x2ee>
    1a4b:	48 8b 85 58 ff ff ff 	mov    -0xa8(%rbp),%rax
    1a52:	48 8b 80 98 00 00 00 	mov    0x98(%rax),%rax
    1a59:	48 85 c0             	test   %rax,%rax
    1a5c:	74 4c                	je     1aaa <dtls1_get_message_fragment+0x2af>
    1a5e:	48 8b 85 58 ff ff ff 	mov    -0xa8(%rbp),%rax
    1a65:	48 8b 80 98 00 00 00 	mov    0x98(%rax),%rax
    1a6c:	48 8b 95 58 ff ff ff 	mov    -0xa8(%rbp),%rdx
    1a73:	48 8b 8a a0 00 00 00 	mov    0xa0(%rdx),%rcx
    1a7a:	48 8b 95 58 ff ff ff 	mov    -0xa8(%rbp),%rdx
    1a81:	8b 32                	mov    (%rdx),%esi
    1a83:	48 8b bd 58 ff ff ff 	mov    -0xa8(%rbp),%rdi
    1a8a:	48 8d 55 c0          	lea    -0x40(%rbp),%rdx
    1a8e:	48 89 0c 24          	mov    %rcx,(%rsp)
    1a92:	49 89 f9             	mov    %rdi,%r9
    1a95:	41 b8 0c 00 00 00    	mov    $0xc,%r8d
    1a9b:	48 89 d1             	mov    %rdx,%rcx
    1a9e:	ba 16 00 00 00       	mov    $0x16,%edx
    1aa3:	bf 00 00 00 00       	mov    $0x0,%edi
    1aa8:	ff d0                	callq  *%rax
    1aaa:	48 8b 85 58 ff ff ff 	mov    -0xa8(%rbp),%rax
    1ab1:	c7 40 60 00 00 00 00 	movl   $0x0,0x60(%rax)
    1ab8:	48 8b bd 40 ff ff ff 	mov    -0xc0(%rbp),%rdi
    1abf:	48 8b 8d 48 ff ff ff 	mov    -0xb8(%rbp),%rcx
    1ac6:	8b 95 50 ff ff ff    	mov    -0xb0(%rbp),%edx
    1acc:	8b b5 54 ff ff ff    	mov    -0xac(%rbp),%esi
    1ad2:	48 8b 85 58 ff ff ff 	mov    -0xa8(%rbp),%rax
    1ad9:	49 89 f8             	mov    %rdi,%r8
    1adc:	48 89 c7             	mov    %rax,%rdi
    1adf:	e8 17 fd ff ff       	callq  17fb <dtls1_get_message_fragment>
    1ae4:	e9 84 01 00 00       	jmpq   1c6d <dtls1_get_message_fragment+0x472>
    1ae9:	c7 45 f8 0a 00 00 00 	movl   $0xa,-0x8(%rbp)
    1af0:	41 b8 58 03 00 00    	mov    $0x358,%r8d
    1af6:	b9 00 00 00 00       	mov    $0x0,%ecx
    1afb:	ba f4 00 00 00       	mov    $0xf4,%edx
    1b00:	be fd 00 00 00       	mov    $0xfd,%esi
    1b05:	bf 14 00 00 00       	mov    $0x14,%edi
    1b0a:	e8 00 00 00 00       	callq  1b0f <dtls1_get_message_fragment+0x314>
    1b0f:	e9 20 01 00 00       	jmpq   1c34 <dtls1_get_message_fragment+0x439>
    1b14:	48 8b 85 48 ff ff ff 	mov    -0xb8(%rbp),%rax
    1b1b:	89 c2                	mov    %eax,%edx
    1b1d:	48 8d 8d 60 ff ff ff 	lea    -0xa0(%rbp),%rcx
    1b24:	48 8b 85 58 ff ff ff 	mov    -0xa8(%rbp),%rax
    1b2b:	48 89 ce             	mov    %rcx,%rsi
    1b2e:	48 89 c7             	mov    %rax,%rdi
    1b31:	e8 78 f0 ff ff       	callq  bae <dtls1_preprocess_fragment>
    1b36:	89 45 f8             	mov    %eax,-0x8(%rbp)
    1b39:	83 7d f8 00          	cmpl   $0x0,-0x8(%rbp)
    1b3d:	74 05                	je     1b44 <dtls1_get_message_fragment+0x349>
    1b3f:	e9 f0 00 00 00       	jmpq   1c34 <dtls1_get_message_fragment+0x439>
    1b44:	48 8b 85 58 ff ff ff 	mov    -0xa8(%rbp),%rax
    1b4b:	8b 95 50 ff ff ff    	mov    -0xb0(%rbp),%edx
    1b51:	89 50 48             	mov    %edx,0x48(%rax)
    1b54:	48 83 7d f0 00       	cmpq   $0x0,-0x10(%rbp)
    1b59:	74 7e                	je     1bd9 <dtls1_get_message_fragment+0x3de>
    1b5b:	48 8b 85 58 ff ff ff 	mov    -0xa8(%rbp),%rax
    1b62:	48 8b 40 50          	mov    0x50(%rax),%rax
    1b66:	48 8b 40 08          	mov    0x8(%rax),%rax
    1b6a:	48 83 c0 0c          	add    $0xc,%rax
    1b6e:	48 89 45 d8          	mov    %rax,-0x28(%rbp)
    1b72:	48 8b 85 58 ff ff ff 	mov    -0xa8(%rbp),%rax
    1b79:	48 8b 40 08          	mov    0x8(%rax),%rax
    1b7d:	48 8b 40 68          	mov    0x68(%rax),%rax
    1b81:	48 8b 55 f0          	mov    -0x10(%rbp),%rdx
    1b85:	48 8b 4d e0          	mov    -0x20(%rbp),%rcx
    1b89:	48 8b 75 d8          	mov    -0x28(%rbp),%rsi
    1b8d:	48 01 ce             	add    %rcx,%rsi
    1b90:	48 8b bd 58 ff ff ff 	mov    -0xa8(%rbp),%rdi
    1b97:	41 b8 00 00 00 00    	mov    $0x0,%r8d
    1b9d:	89 d1                	mov    %edx,%ecx
    1b9f:	48 89 f2             	mov    %rsi,%rdx
    1ba2:	be 16 00 00 00       	mov    $0x16,%esi
    1ba7:	ff d0                	callq  *%rax
    1ba9:	89 45 fc             	mov    %eax,-0x4(%rbp)
    1bac:	83 7d fc 00          	cmpl   $0x0,-0x4(%rbp)
    1bb0:	7f 25                	jg     1bd7 <dtls1_get_message_fragment+0x3dc>
    1bb2:	48 8b 85 58 ff ff ff 	mov    -0xa8(%rbp),%rax
    1bb9:	c7 40 28 03 00 00 00 	movl   $0x3,0x28(%rax)
    1bc0:	48 8b 85 40 ff ff ff 	mov    -0xc0(%rbp),%rax
    1bc7:	c7 00 00 00 00 00    	movl   $0x0,(%rax)
    1bcd:	8b 45 fc             	mov    -0x4(%rbp),%eax
    1bd0:	48 98                	cltq   
    1bd2:	e9 96 00 00 00       	jmpq   1c6d <dtls1_get_message_fragment+0x472>
    1bd7:	eb 07                	jmp    1be0 <dtls1_get_message_fragment+0x3e5>
    1bd9:	c7 45 fc 00 00 00 00 	movl   $0x0,-0x4(%rbp)
    1be0:	48 8b 45 f0          	mov    -0x10(%rbp),%rax
    1be4:	3b 45 fc             	cmp    -0x4(%rbp),%eax
    1be7:	74 28                	je     1c11 <dtls1_get_message_fragment+0x416>
    1be9:	c7 45 f8 2f 00 00 00 	movl   $0x2f,-0x8(%rbp)
    1bf0:	41 b8 79 03 00 00    	mov    $0x379,%r8d
    1bf6:	b9 00 00 00 00       	mov    $0x0,%ecx
    1bfb:	ba 2f 00 00 00       	mov    $0x2f,%edx
    1c00:	be fd 00 00 00       	mov    $0xfd,%esi
    1c05:	bf 14 00 00 00       	mov    $0x14,%edi
    1c0a:	e8 00 00 00 00       	callq  1c0f <dtls1_get_message_fragment+0x414>
    1c0f:	eb 23                	jmp    1c34 <dtls1_get_message_fragment+0x439>
    1c11:	48 8b 85 40 ff ff ff 	mov    -0xc0(%rbp),%rax
    1c18:	c7 00 01 00 00 00    	movl   $0x1,(%rax)
    1c1e:	48 8b 45 f0          	mov    -0x10(%rbp),%rax
    1c22:	89 c2                	mov    %eax,%edx
    1c24:	48 8b 85 58 ff ff ff 	mov    -0xa8(%rbp),%rax
    1c2b:	89 50 60             	mov    %edx,0x60(%rax)
    1c2e:	48 8b 45 f0          	mov    -0x10(%rbp),%rax
    1c32:	eb 39                	jmp    1c6d <dtls1_get_message_fragment+0x472>
    1c34:	8b 55 f8             	mov    -0x8(%rbp),%edx
    1c37:	48 8b 85 58 ff ff ff 	mov    -0xa8(%rbp),%rax
    1c3e:	be 02 00 00 00       	mov    $0x2,%esi
    1c43:	48 89 c7             	mov    %rax,%rdi
    1c46:	e8 00 00 00 00       	callq  1c4b <dtls1_get_message_fragment+0x450>
    1c4b:	48 8b 85 58 ff ff ff 	mov    -0xa8(%rbp),%rax
    1c52:	c7 40 60 00 00 00 00 	movl   $0x0,0x60(%rax)
    1c59:	48 8b 85 40 ff ff ff 	mov    -0xc0(%rbp),%rax
    1c60:	c7 00 00 00 00 00    	movl   $0x0,(%rax)
    1c66:	48 c7 c0 ff ff ff ff 	mov    $0xffffffffffffffff,%rax
    1c6d:	c9                   	leaveq 
    1c6e:	c3                   	retq   

0000000000001c6f <dtls1_send_finished>:
    1c6f:	55                   	push   %rbp
    1c70:	48 89 e5             	mov    %rsp,%rbp
    1c73:	48 83 ec 40          	sub    $0x40,%rsp
    1c77:	48 89 7d d8          	mov    %rdi,-0x28(%rbp)
    1c7b:	89 75 d4             	mov    %esi,-0x2c(%rbp)
    1c7e:	89 55 d0             	mov    %edx,-0x30(%rbp)
    1c81:	48 89 4d c8          	mov    %rcx,-0x38(%rbp)
    1c85:	44 89 45 c4          	mov    %r8d,-0x3c(%rbp)
    1c89:	48 8b 45 d8          	mov    -0x28(%rbp),%rax
    1c8d:	8b 40 48             	mov    0x48(%rax),%eax
    1c90:	3b 45 d4             	cmp    -0x2c(%rbp),%eax
    1c93:	0f 85 d3 01 00 00    	jne    1e6c <dtls1_send_finished+0x1fd>
    1c99:	48 8b 45 d8          	mov    -0x28(%rbp),%rax
    1c9d:	48 8b 40 50          	mov    0x50(%rax),%rax
    1ca1:	48 8b 40 08          	mov    0x8(%rax),%rax
    1ca5:	48 89 45 f8          	mov    %rax,-0x8(%rbp)
    1ca9:	48 8b 45 f8          	mov    -0x8(%rbp),%rax
    1cad:	48 83 c0 0c          	add    $0xc,%rax
    1cb1:	48 89 45 f0          	mov    %rax,-0x10(%rbp)
    1cb5:	48 8b 45 d8          	mov    -0x28(%rbp),%rax
    1cb9:	48 8b 40 08          	mov    0x8(%rax),%rax
    1cbd:	48 8b 80 c8 00 00 00 	mov    0xc8(%rax),%rax
    1cc4:	48 8b 40 28          	mov    0x28(%rax),%rax
    1cc8:	48 8b 55 d8          	mov    -0x28(%rbp),%rdx
    1ccc:	48 8b 92 80 00 00 00 	mov    0x80(%rdx),%rdx
    1cd3:	48 8d 8a 90 02 00 00 	lea    0x290(%rdx),%rcx
    1cda:	8b 55 c4             	mov    -0x3c(%rbp),%edx
    1cdd:	48 8b 75 c8          	mov    -0x38(%rbp),%rsi
    1ce1:	48 8b 7d d8          	mov    -0x28(%rbp),%rdi
    1ce5:	ff d0                	callq  *%rax
    1ce7:	89 45 ec             	mov    %eax,-0x14(%rbp)
    1cea:	48 8b 45 d8          	mov    -0x28(%rbp),%rax
    1cee:	48 8b 80 80 00 00 00 	mov    0x80(%rax),%rax
    1cf5:	8b 55 ec             	mov    -0x14(%rbp),%edx
    1cf8:	89 90 10 03 00 00    	mov    %edx,0x310(%rax)
    1cfe:	8b 45 ec             	mov    -0x14(%rbp),%eax
    1d01:	48 63 d0             	movslq %eax,%rdx
    1d04:	48 8b 45 d8          	mov    -0x28(%rbp),%rax
    1d08:	48 8b 80 80 00 00 00 	mov    0x80(%rax),%rax
    1d0f:	48 8d 88 90 02 00 00 	lea    0x290(%rax),%rcx
    1d16:	48 8b 45 f0          	mov    -0x10(%rbp),%rax
    1d1a:	48 89 ce             	mov    %rcx,%rsi
    1d1d:	48 89 c7             	mov    %rax,%rdi
    1d20:	e8 00 00 00 00       	callq  1d25 <dtls1_send_finished+0xb6>
    1d25:	8b 45 ec             	mov    -0x14(%rbp),%eax
    1d28:	48 98                	cltq   
    1d2a:	48 01 45 f0          	add    %rax,-0x10(%rbp)
    1d2e:	8b 45 ec             	mov    -0x14(%rbp),%eax
    1d31:	48 98                	cltq   
    1d33:	48 89 45 e0          	mov    %rax,-0x20(%rbp)
    1d37:	48 8b 45 d8          	mov    -0x28(%rbp),%rax
    1d3b:	8b 40 04             	mov    0x4(%rax),%eax
    1d3e:	3d 00 10 00 00       	cmp    $0x1000,%eax
    1d43:	75 64                	jne    1da9 <dtls1_send_finished+0x13a>
    1d45:	83 7d ec 40          	cmpl   $0x40,-0x14(%rbp)
    1d49:	7e 14                	jle    1d5f <dtls1_send_finished+0xf0>
    1d4b:	ba 00 00 00 00       	mov    $0x0,%edx
    1d50:	be a5 03 00 00       	mov    $0x3a5,%esi
    1d55:	bf 00 00 00 00       	mov    $0x0,%edi
    1d5a:	e8 00 00 00 00       	callq  1d5f <dtls1_send_finished+0xf0>
    1d5f:	8b 45 ec             	mov    -0x14(%rbp),%eax
    1d62:	48 98                	cltq   
    1d64:	48 8b 55 d8          	mov    -0x28(%rbp),%rdx
    1d68:	48 8b 92 80 00 00 00 	mov    0x80(%rdx),%rdx
    1d6f:	48 8d b2 90 02 00 00 	lea    0x290(%rdx),%rsi
    1d76:	48 8b 55 d8          	mov    -0x28(%rbp),%rdx
    1d7a:	48 8b 92 80 00 00 00 	mov    0x80(%rdx),%rdx
    1d81:	48 8d 8a 20 04 00 00 	lea    0x420(%rdx),%rcx
    1d88:	48 89 c2             	mov    %rax,%rdx
    1d8b:	48 89 cf             	mov    %rcx,%rdi
    1d8e:	e8 00 00 00 00       	callq  1d93 <dtls1_send_finished+0x124>
    1d93:	48 8b 45 d8          	mov    -0x28(%rbp),%rax
    1d97:	48 8b 80 80 00 00 00 	mov    0x80(%rax),%rax
    1d9e:	8b 55 ec             	mov    -0x14(%rbp),%edx
    1da1:	88 90 60 04 00 00    	mov    %dl,0x460(%rax)
    1da7:	eb 62                	jmp    1e0b <dtls1_send_finished+0x19c>
    1da9:	83 7d ec 40          	cmpl   $0x40,-0x14(%rbp)
    1dad:	7e 14                	jle    1dc3 <dtls1_send_finished+0x154>
    1daf:	ba 00 00 00 00       	mov    $0x0,%edx
    1db4:	be ac 03 00 00       	mov    $0x3ac,%esi
    1db9:	bf 00 00 00 00       	mov    $0x0,%edi
    1dbe:	e8 00 00 00 00       	callq  1dc3 <dtls1_send_finished+0x154>
    1dc3:	8b 45 ec             	mov    -0x14(%rbp),%eax
    1dc6:	48 98                	cltq   
    1dc8:	48 8b 55 d8          	mov    -0x28(%rbp),%rdx
    1dcc:	48 8b 92 80 00 00 00 	mov    0x80(%rdx),%rdx
    1dd3:	48 8d b2 90 02 00 00 	lea    0x290(%rdx),%rsi
    1dda:	48 8b 55 d8          	mov    -0x28(%rbp),%rdx
    1dde:	48 8b 92 80 00 00 00 	mov    0x80(%rdx),%rdx
    1de5:	48 8d 8a 61 04 00 00 	lea    0x461(%rdx),%rcx
    1dec:	48 89 c2             	mov    %rax,%rdx
    1def:	48 89 cf             	mov    %rcx,%rdi
    1df2:	e8 00 00 00 00       	callq  1df7 <dtls1_send_finished+0x188>
    1df7:	48 8b 45 d8          	mov    -0x28(%rbp),%rax
    1dfb:	48 8b 80 80 00 00 00 	mov    0x80(%rax),%rax
    1e02:	8b 55 ec             	mov    -0x14(%rbp),%edx
    1e05:	88 90 a1 04 00 00    	mov    %dl,0x4a1(%rax)
    1e0b:	48 8b 4d e0          	mov    -0x20(%rbp),%rcx
    1e0f:	48 8b 55 e0          	mov    -0x20(%rbp),%rdx
    1e13:	48 8b 75 f8          	mov    -0x8(%rbp),%rsi
    1e17:	48 8b 45 d8          	mov    -0x28(%rbp),%rax
    1e1b:	49 89 c9             	mov    %rcx,%r9
    1e1e:	41 b8 00 00 00 00    	mov    $0x0,%r8d
    1e24:	48 89 d1             	mov    %rdx,%rcx
    1e27:	ba 14 00 00 00       	mov    $0x14,%edx
    1e2c:	48 89 c7             	mov    %rax,%rdi
    1e2f:	e8 00 00 00 00       	callq  1e34 <dtls1_send_finished+0x1c5>
    1e34:	48 89 45 f8          	mov    %rax,-0x8(%rbp)
    1e38:	48 8b 45 e0          	mov    -0x20(%rbp),%rax
    1e3c:	8d 50 0c             	lea    0xc(%rax),%edx
    1e3f:	48 8b 45 d8          	mov    -0x28(%rbp),%rax
    1e43:	89 50 60             	mov    %edx,0x60(%rax)
    1e46:	48 8b 45 d8          	mov    -0x28(%rbp),%rax
    1e4a:	c7 40 64 00 00 00 00 	movl   $0x0,0x64(%rax)
    1e51:	48 8b 45 d8          	mov    -0x28(%rbp),%rax
    1e55:	be 00 00 00 00       	mov    $0x0,%esi
    1e5a:	48 89 c7             	mov    %rax,%rdi
    1e5d:	e8 00 00 00 00       	callq  1e62 <dtls1_send_finished+0x1f3>
    1e62:	48 8b 45 d8          	mov    -0x28(%rbp),%rax
    1e66:	8b 55 d0             	mov    -0x30(%rbp),%edx
    1e69:	89 50 48             	mov    %edx,0x48(%rax)
    1e6c:	48 8b 45 d8          	mov    -0x28(%rbp),%rax
    1e70:	be 16 00 00 00       	mov    $0x16,%esi
    1e75:	48 89 c7             	mov    %rax,%rdi
    1e78:	e8 00 00 00 00       	callq  1e7d <dtls1_send_finished+0x20e>
    1e7d:	c9                   	leaveq 
    1e7e:	c3                   	retq   

0000000000001e7f <dtls1_send_change_cipher_spec>:
    1e7f:	55                   	push   %rbp
    1e80:	48 89 e5             	mov    %rsp,%rbp
    1e83:	48 83 ec 20          	sub    $0x20,%rsp
    1e87:	48 89 7d e8          	mov    %rdi,-0x18(%rbp)
    1e8b:	89 75 e4             	mov    %esi,-0x1c(%rbp)
    1e8e:	89 55 e0             	mov    %edx,-0x20(%rbp)
    1e91:	48 8b 45 e8          	mov    -0x18(%rbp),%rax
    1e95:	8b 40 48             	mov    0x48(%rax),%eax
    1e98:	3b 45 e4             	cmp    -0x1c(%rbp),%eax
    1e9b:	0f 85 26 01 00 00    	jne    1fc7 <dtls1_send_change_cipher_spec+0x148>
    1ea1:	48 8b 45 e8          	mov    -0x18(%rbp),%rax
    1ea5:	48 8b 40 50          	mov    0x50(%rax),%rax
    1ea9:	48 8b 40 08          	mov    0x8(%rax),%rax
    1ead:	48 89 45 f8          	mov    %rax,-0x8(%rbp)
    1eb1:	48 8b 45 f8          	mov    -0x8(%rbp),%rax
    1eb5:	48 8d 50 01          	lea    0x1(%rax),%rdx
    1eb9:	48 89 55 f8          	mov    %rdx,-0x8(%rbp)
    1ebd:	c6 00 01             	movb   $0x1,(%rax)
    1ec0:	48 8b 45 e8          	mov    -0x18(%rbp),%rax
    1ec4:	48 8b 80 88 00 00 00 	mov    0x88(%rax),%rax
    1ecb:	48 8b 55 e8          	mov    -0x18(%rbp),%rdx
    1ecf:	48 8b 92 88 00 00 00 	mov    0x88(%rdx),%rdx
    1ed6:	0f b7 92 32 02 00 00 	movzwl 0x232(%rdx),%edx
    1edd:	66 89 90 30 02 00 00 	mov    %dx,0x230(%rax)
    1ee4:	48 8b 45 e8          	mov    -0x18(%rbp),%rax
    1ee8:	c7 40 60 01 00 00 00 	movl   $0x1,0x60(%rax)
    1eef:	48 8b 45 e8          	mov    -0x18(%rbp),%rax
    1ef3:	8b 00                	mov    (%rax),%eax
    1ef5:	3d 00 01 00 00       	cmp    $0x100,%eax
    1efa:	75 6c                	jne    1f68 <dtls1_send_change_cipher_spec+0xe9>
    1efc:	48 8b 45 e8          	mov    -0x18(%rbp),%rax
    1f00:	48 8b 80 88 00 00 00 	mov    0x88(%rax),%rax
    1f07:	0f b7 90 32 02 00 00 	movzwl 0x232(%rax),%edx
    1f0e:	83 c2 01             	add    $0x1,%edx
    1f11:	66 89 90 32 02 00 00 	mov    %dx,0x232(%rax)
    1f18:	48 8b 45 e8          	mov    -0x18(%rbp),%rax
    1f1c:	48 8b 80 88 00 00 00 	mov    0x88(%rax),%rax
    1f23:	0f b7 80 30 02 00 00 	movzwl 0x230(%rax),%eax
    1f2a:	66 c1 e8 08          	shr    $0x8,%ax
    1f2e:	89 c2                	mov    %eax,%edx
    1f30:	48 8b 45 f8          	mov    -0x8(%rbp),%rax
    1f34:	88 10                	mov    %dl,(%rax)
    1f36:	48 8b 45 f8          	mov    -0x8(%rbp),%rax
    1f3a:	48 8d 50 01          	lea    0x1(%rax),%rdx
    1f3e:	48 8b 45 e8          	mov    -0x18(%rbp),%rax
    1f42:	48 8b 80 88 00 00 00 	mov    0x88(%rax),%rax
    1f49:	0f b7 80 30 02 00 00 	movzwl 0x230(%rax),%eax
    1f50:	88 02                	mov    %al,(%rdx)
    1f52:	48 83 45 f8 02       	addq   $0x2,-0x8(%rbp)
    1f57:	48 8b 45 e8          	mov    -0x18(%rbp),%rax
    1f5b:	8b 40 60             	mov    0x60(%rax),%eax
    1f5e:	8d 50 02             	lea    0x2(%rax),%edx
    1f61:	48 8b 45 e8          	mov    -0x18(%rbp),%rax
    1f65:	89 50 60             	mov    %edx,0x60(%rax)
    1f68:	48 8b 45 e8          	mov    -0x18(%rbp),%rax
    1f6c:	c7 40 64 00 00 00 00 	movl   $0x0,0x64(%rax)
    1f73:	48 8b 45 e8          	mov    -0x18(%rbp),%rax
    1f77:	48 8b 80 88 00 00 00 	mov    0x88(%rax),%rax
    1f7e:	0f b7 80 30 02 00 00 	movzwl 0x230(%rax),%eax
    1f85:	0f b7 d0             	movzwl %ax,%edx
    1f88:	48 8b 45 e8          	mov    -0x18(%rbp),%rax
    1f8c:	41 b9 00 00 00 00    	mov    $0x0,%r9d
    1f92:	41 b8 00 00 00 00    	mov    $0x0,%r8d
    1f98:	89 d1                	mov    %edx,%ecx
    1f9a:	ba 00 00 00 00       	mov    $0x0,%edx
    1f9f:	be 01 00 00 00       	mov    $0x1,%esi
    1fa4:	48 89 c7             	mov    %rax,%rdi
    1fa7:	e8 cc 0c 00 00       	callq  2c78 <dtls1_set_message_header_int>
    1fac:	48 8b 45 e8          	mov    -0x18(%rbp),%rax
    1fb0:	be 01 00 00 00       	mov    $0x1,%esi
    1fb5:	48 89 c7             	mov    %rax,%rdi
    1fb8:	e8 00 00 00 00       	callq  1fbd <dtls1_send_change_cipher_spec+0x13e>
    1fbd:	48 8b 45 e8          	mov    -0x18(%rbp),%rax
    1fc1:	8b 55 e0             	mov    -0x20(%rbp),%edx
    1fc4:	89 50 48             	mov    %edx,0x48(%rax)
    1fc7:	48 8b 45 e8          	mov    -0x18(%rbp),%rax
    1fcb:	be 14 00 00 00       	mov    $0x14,%esi
    1fd0:	48 89 c7             	mov    %rax,%rdi
    1fd3:	e8 00 00 00 00       	callq  1fd8 <dtls1_send_change_cipher_spec+0x159>
    1fd8:	c9                   	leaveq 
    1fd9:	c3                   	retq   

0000000000001fda <dtls1_add_cert_to_buf>:
    1fda:	55                   	push   %rbp
    1fdb:	48 89 e5             	mov    %rsp,%rbp
    1fde:	48 83 ec 30          	sub    $0x30,%rsp
    1fe2:	48 89 7d e8          	mov    %rdi,-0x18(%rbp)
    1fe6:	48 89 75 e0          	mov    %rsi,-0x20(%rbp)
    1fea:	48 89 55 d8          	mov    %rdx,-0x28(%rbp)
    1fee:	48 8b 45 d8          	mov    -0x28(%rbp),%rax
    1ff2:	be 00 00 00 00       	mov    $0x0,%esi
    1ff7:	48 89 c7             	mov    %rax,%rdi
    1ffa:	e8 00 00 00 00       	callq  1fff <dtls1_add_cert_to_buf+0x25>
    1fff:	89 45 fc             	mov    %eax,-0x4(%rbp)
    2002:	48 8b 45 e0          	mov    -0x20(%rbp),%rax
    2006:	48 8b 00             	mov    (%rax),%rax
    2009:	89 c2                	mov    %eax,%edx
    200b:	8b 45 fc             	mov    -0x4(%rbp),%eax
    200e:	01 d0                	add    %edx,%eax
    2010:	83 c0 03             	add    $0x3,%eax
    2013:	48 63 d0             	movslq %eax,%rdx
    2016:	48 8b 45 e8          	mov    -0x18(%rbp),%rax
    201a:	48 89 d6             	mov    %rdx,%rsi
    201d:	48 89 c7             	mov    %rax,%rdi
    2020:	e8 00 00 00 00       	callq  2025 <dtls1_add_cert_to_buf+0x4b>
    2025:	85 c0                	test   %eax,%eax
    2027:	75 26                	jne    204f <dtls1_add_cert_to_buf+0x75>
    2029:	41 b8 f7 03 00 00    	mov    $0x3f7,%r8d
    202f:	b9 00 00 00 00       	mov    $0x0,%ecx
    2034:	ba 07 00 00 00       	mov    $0x7,%edx
    2039:	be 27 01 00 00       	mov    $0x127,%esi
    203e:	bf 14 00 00 00       	mov    $0x14,%edi
    2043:	e8 00 00 00 00       	callq  2048 <dtls1_add_cert_to_buf+0x6e>
    2048:	b8 00 00 00 00       	mov    $0x0,%eax
    204d:	eb 7c                	jmp    20cb <dtls1_add_cert_to_buf+0xf1>
    204f:	48 8b 45 e8          	mov    -0x18(%rbp),%rax
    2053:	48 8b 50 08          	mov    0x8(%rax),%rdx
    2057:	48 8b 45 e0          	mov    -0x20(%rbp),%rax
    205b:	48 8b 00             	mov    (%rax),%rax
    205e:	48 01 d0             	add    %rdx,%rax
    2061:	48 89 45 f0          	mov    %rax,-0x10(%rbp)
    2065:	48 8b 45 f0          	mov    -0x10(%rbp),%rax
    2069:	8b 55 fc             	mov    -0x4(%rbp),%edx
    206c:	c1 fa 10             	sar    $0x10,%edx
    206f:	88 10                	mov    %dl,(%rax)
    2071:	48 8b 45 f0          	mov    -0x10(%rbp),%rax
    2075:	48 8d 50 01          	lea    0x1(%rax),%rdx
    2079:	8b 45 fc             	mov    -0x4(%rbp),%eax
    207c:	c1 f8 08             	sar    $0x8,%eax
    207f:	88 02                	mov    %al,(%rdx)
    2081:	48 8b 45 f0          	mov    -0x10(%rbp),%rax
    2085:	48 8d 50 02          	lea    0x2(%rax),%rdx
    2089:	8b 45 fc             	mov    -0x4(%rbp),%eax
    208c:	88 02                	mov    %al,(%rdx)
    208e:	48 8b 45 f0          	mov    -0x10(%rbp),%rax
    2092:	48 83 c0 03          	add    $0x3,%rax
    2096:	48 89 45 f0          	mov    %rax,-0x10(%rbp)
    209a:	48 8d 55 f0          	lea    -0x10(%rbp),%rdx
    209e:	48 8b 45 d8          	mov    -0x28(%rbp),%rax
    20a2:	48 89 d6             	mov    %rdx,%rsi
    20a5:	48 89 c7             	mov    %rax,%rdi
    20a8:	e8 00 00 00 00       	callq  20ad <dtls1_add_cert_to_buf+0xd3>
    20ad:	48 8b 45 e0          	mov    -0x20(%rbp),%rax
    20b1:	48 8b 10             	mov    (%rax),%rdx
    20b4:	8b 45 fc             	mov    -0x4(%rbp),%eax
    20b7:	83 c0 03             	add    $0x3,%eax
    20ba:	48 98                	cltq   
    20bc:	48 01 c2             	add    %rax,%rdx
    20bf:	48 8b 45 e0          	mov    -0x20(%rbp),%rax
    20c3:	48 89 10             	mov    %rdx,(%rax)
    20c6:	b8 01 00 00 00       	mov    $0x1,%eax
    20cb:	c9                   	leaveq 
    20cc:	c3                   	retq   

00000000000020cd <dtls1_output_cert_chain>:
    20cd:	55                   	push   %rbp
    20ce:	48 89 e5             	mov    %rsp,%rbp
    20d1:	48 81 ec 30 01 00 00 	sub    $0x130,%rsp
    20d8:	48 89 bd d8 fe ff ff 	mov    %rdi,-0x128(%rbp)
    20df:	48 89 b5 d0 fe ff ff 	mov    %rsi,-0x130(%rbp)
    20e6:	48 c7 45 e0 0f 00 00 	movq   $0xf,-0x20(%rbp)
    20ed:	00 
    20ee:	48 8b 85 d8 fe ff ff 	mov    -0x128(%rbp),%rax
    20f5:	48 8b 40 50          	mov    0x50(%rax),%rax
    20f9:	48 89 45 f0          	mov    %rax,-0x10(%rbp)
    20fd:	48 8b 45 f0          	mov    -0x10(%rbp),%rax
    2101:	be 0a 00 00 00       	mov    $0xa,%esi
    2106:	48 89 c7             	mov    %rax,%rdi
    2109:	e8 00 00 00 00       	callq  210e <dtls1_output_cert_chain+0x41>
    210e:	85 c0                	test   %eax,%eax
    2110:	75 29                	jne    213b <dtls1_output_cert_chain+0x6e>
    2112:	41 b8 0c 04 00 00    	mov    $0x40c,%r8d
    2118:	b9 00 00 00 00       	mov    $0x0,%ecx
    211d:	ba 07 00 00 00       	mov    $0x7,%edx
    2122:	be ff 00 00 00       	mov    $0xff,%esi
    2127:	bf 14 00 00 00       	mov    $0x14,%edi
    212c:	e8 00 00 00 00       	callq  2131 <dtls1_output_cert_chain+0x64>
    2131:	b8 00 00 00 00       	mov    $0x0,%eax
    2136:	e9 21 02 00 00       	jmpq   235c <dtls1_output_cert_chain+0x28f>
    213b:	48 83 bd d0 fe ff ff 	cmpq   $0x0,-0x130(%rbp)
    2142:	00 
    2143:	0f 84 ea 00 00 00    	je     2233 <dtls1_output_cert_chain+0x166>
    2149:	48 8b 85 d8 fe ff ff 	mov    -0x128(%rbp),%rax
    2150:	48 8b 80 78 01 00 00 	mov    0x178(%rax),%rax
    2157:	48 8b 70 18          	mov    0x18(%rax),%rsi
    215b:	48 8b 95 d0 fe ff ff 	mov    -0x130(%rbp),%rdx
    2162:	48 8d 85 e0 fe ff ff 	lea    -0x120(%rbp),%rax
    2169:	b9 00 00 00 00       	mov    $0x0,%ecx
    216e:	48 89 c7             	mov    %rax,%rdi
    2171:	e8 00 00 00 00       	callq  2176 <dtls1_output_cert_chain+0xa9>
    2176:	85 c0                	test   %eax,%eax
    2178:	75 29                	jne    21a3 <dtls1_output_cert_chain+0xd6>
    217a:	41 b8 15 04 00 00    	mov    $0x415,%r8d
    2180:	b9 00 00 00 00       	mov    $0x0,%ecx
    2185:	ba 0b 00 00 00       	mov    $0xb,%edx
    218a:	be ff 00 00 00       	mov    $0xff,%esi
    218f:	bf 14 00 00 00       	mov    $0x14,%edi
    2194:	e8 00 00 00 00       	callq  2199 <dtls1_output_cert_chain+0xcc>
    2199:	b8 00 00 00 00       	mov    $0x0,%eax
    219e:	e9 b9 01 00 00       	jmpq   235c <dtls1_output_cert_chain+0x28f>
    21a3:	48 8d 85 e0 fe ff ff 	lea    -0x120(%rbp),%rax
    21aa:	48 89 c7             	mov    %rax,%rdi
    21ad:	e8 00 00 00 00       	callq  21b2 <dtls1_output_cert_chain+0xe5>
    21b2:	e8 00 00 00 00       	callq  21b7 <dtls1_output_cert_chain+0xea>
    21b7:	c7 45 fc 00 00 00 00 	movl   $0x0,-0x4(%rbp)
    21be:	eb 53                	jmp    2213 <dtls1_output_cert_chain+0x146>
    21c0:	48 8b 45 80          	mov    -0x80(%rbp),%rax
    21c4:	8b 55 fc             	mov    -0x4(%rbp),%edx
    21c7:	89 d6                	mov    %edx,%esi
    21c9:	48 89 c7             	mov    %rax,%rdi
    21cc:	e8 00 00 00 00       	callq  21d1 <dtls1_output_cert_chain+0x104>
    21d1:	48 89 85 d0 fe ff ff 	mov    %rax,-0x130(%rbp)
    21d8:	48 8b 95 d0 fe ff ff 	mov    -0x130(%rbp),%rdx
    21df:	48 8d 4d e0          	lea    -0x20(%rbp),%rcx
    21e3:	48 8b 45 f0          	mov    -0x10(%rbp),%rax
    21e7:	48 89 ce             	mov    %rcx,%rsi
    21ea:	48 89 c7             	mov    %rax,%rdi
    21ed:	e8 e8 fd ff ff       	callq  1fda <dtls1_add_cert_to_buf>
    21f2:	85 c0                	test   %eax,%eax
    21f4:	75 19                	jne    220f <dtls1_output_cert_chain+0x142>
    21f6:	48 8d 85 e0 fe ff ff 	lea    -0x120(%rbp),%rax
    21fd:	48 89 c7             	mov    %rax,%rdi
    2200:	e8 00 00 00 00       	callq  2205 <dtls1_output_cert_chain+0x138>
    2205:	b8 00 00 00 00       	mov    $0x0,%eax
    220a:	e9 4d 01 00 00       	jmpq   235c <dtls1_output_cert_chain+0x28f>
    220f:	83 45 fc 01          	addl   $0x1,-0x4(%rbp)
    2213:	48 8b 45 80          	mov    -0x80(%rbp),%rax
    2217:	48 89 c7             	mov    %rax,%rdi
    221a:	e8 00 00 00 00       	callq  221f <dtls1_output_cert_chain+0x152>
    221f:	3b 45 fc             	cmp    -0x4(%rbp),%eax
    2222:	7f 9c                	jg     21c0 <dtls1_output_cert_chain+0xf3>
    2224:	48 8d 85 e0 fe ff ff 	lea    -0x120(%rbp),%rax
    222b:	48 89 c7             	mov    %rax,%rdi
    222e:	e8 00 00 00 00       	callq  2233 <dtls1_output_cert_chain+0x166>
    2233:	c7 45 fc 00 00 00 00 	movl   $0x0,-0x4(%rbp)
    223a:	eb 55                	jmp    2291 <dtls1_output_cert_chain+0x1c4>
    223c:	48 8b 85 d8 fe ff ff 	mov    -0x128(%rbp),%rax
    2243:	48 8b 80 78 01 00 00 	mov    0x178(%rax),%rax
    224a:	48 8b 80 f8 00 00 00 	mov    0xf8(%rax),%rax
    2251:	8b 55 fc             	mov    -0x4(%rbp),%edx
    2254:	89 d6                	mov    %edx,%esi
    2256:	48 89 c7             	mov    %rax,%rdi
    2259:	e8 00 00 00 00       	callq  225e <dtls1_output_cert_chain+0x191>
    225e:	48 89 85 d0 fe ff ff 	mov    %rax,-0x130(%rbp)
    2265:	48 8b 95 d0 fe ff ff 	mov    -0x130(%rbp),%rdx
    226c:	48 8d 4d e0          	lea    -0x20(%rbp),%rcx
    2270:	48 8b 45 f0          	mov    -0x10(%rbp),%rax
    2274:	48 89 ce             	mov    %rcx,%rsi
    2277:	48 89 c7             	mov    %rax,%rdi
    227a:	e8 5b fd ff ff       	callq  1fda <dtls1_add_cert_to_buf>
    227f:	85 c0                	test   %eax,%eax
    2281:	75 0a                	jne    228d <dtls1_output_cert_chain+0x1c0>
    2283:	b8 00 00 00 00       	mov    $0x0,%eax
    2288:	e9 cf 00 00 00       	jmpq   235c <dtls1_output_cert_chain+0x28f>
    228d:	83 45 fc 01          	addl   $0x1,-0x4(%rbp)
    2291:	48 8b 85 d8 fe ff ff 	mov    -0x128(%rbp),%rax
    2298:	48 8b 80 78 01 00 00 	mov    0x178(%rax),%rax
    229f:	48 8b 80 f8 00 00 00 	mov    0xf8(%rax),%rax
    22a6:	48 89 c7             	mov    %rax,%rdi
    22a9:	e8 00 00 00 00       	callq  22ae <dtls1_output_cert_chain+0x1e1>
    22ae:	3b 45 fc             	cmp    -0x4(%rbp),%eax
    22b1:	7f 89                	jg     223c <dtls1_output_cert_chain+0x16f>
    22b3:	48 8b 45 e0          	mov    -0x20(%rbp),%rax
    22b7:	48 83 e8 0f          	sub    $0xf,%rax
    22bb:	48 89 45 e0          	mov    %rax,-0x20(%rbp)
    22bf:	48 8b 45 f0          	mov    -0x10(%rbp),%rax
    22c3:	48 8b 40 08          	mov    0x8(%rax),%rax
    22c7:	48 83 c0 0c          	add    $0xc,%rax
    22cb:	48 89 45 e8          	mov    %rax,-0x18(%rbp)
    22cf:	48 8b 45 e0          	mov    -0x20(%rbp),%rax
    22d3:	48 c1 e8 10          	shr    $0x10,%rax
    22d7:	89 c2                	mov    %eax,%edx
    22d9:	48 8b 45 e8          	mov    -0x18(%rbp),%rax
    22dd:	88 10                	mov    %dl,(%rax)
    22df:	48 8b 45 e8          	mov    -0x18(%rbp),%rax
    22e3:	48 8d 50 01          	lea    0x1(%rax),%rdx
    22e7:	48 8b 45 e0          	mov    -0x20(%rbp),%rax
    22eb:	48 c1 e8 08          	shr    $0x8,%rax
    22ef:	88 02                	mov    %al,(%rdx)
    22f1:	48 8b 45 e8          	mov    -0x18(%rbp),%rax
    22f5:	48 8d 50 02          	lea    0x2(%rax),%rdx
    22f9:	48 8b 45 e0          	mov    -0x20(%rbp),%rax
    22fd:	88 02                	mov    %al,(%rdx)
    22ff:	48 83 45 e8 03       	addq   $0x3,-0x18(%rbp)
    2304:	48 8b 45 e0          	mov    -0x20(%rbp),%rax
    2308:	48 83 c0 03          	add    $0x3,%rax
    230c:	48 89 45 e0          	mov    %rax,-0x20(%rbp)
    2310:	48 8b 45 f0          	mov    -0x10(%rbp),%rax
    2314:	48 8b 40 08          	mov    0x8(%rax),%rax
    2318:	48 89 45 e8          	mov    %rax,-0x18(%rbp)
    231c:	48 8b 4d e0          	mov    -0x20(%rbp),%rcx
    2320:	48 8b 55 e0          	mov    -0x20(%rbp),%rdx
    2324:	48 8b 75 e8          	mov    -0x18(%rbp),%rsi
    2328:	48 8b 85 d8 fe ff ff 	mov    -0x128(%rbp),%rax
    232f:	49 89 c9             	mov    %rcx,%r9
    2332:	41 b8 00 00 00 00    	mov    $0x0,%r8d
    2338:	48 89 d1             	mov    %rdx,%rcx
    233b:	ba 0b 00 00 00       	mov    $0xb,%edx
    2340:	48 89 c7             	mov    %rax,%rdi
    2343:	e8 00 00 00 00       	callq  2348 <dtls1_output_cert_chain+0x27b>
    2348:	48 89 45 e8          	mov    %rax,-0x18(%rbp)
    234c:	48 8b 45 e0          	mov    -0x20(%rbp),%rax
    2350:	48 83 c0 0c          	add    $0xc,%rax
    2354:	48 89 45 e0          	mov    %rax,-0x20(%rbp)
    2358:	48 8b 45 e0          	mov    -0x20(%rbp),%rax
    235c:	c9                   	leaveq 
    235d:	c3                   	retq   

000000000000235e <dtls1_read_failed>:
    235e:	55                   	push   %rbp
    235f:	48 89 e5             	mov    %rsp,%rbp
    2362:	48 83 ec 10          	sub    $0x10,%rsp
    2366:	48 89 7d f8          	mov    %rdi,-0x8(%rbp)
    236a:	89 75 f4             	mov    %esi,-0xc(%rbp)
    236d:	83 7d f4 00          	cmpl   $0x0,-0xc(%rbp)
    2371:	7e 2a                	jle    239d <dtls1_read_failed+0x3f>
    2373:	48 8b 05 00 00 00 00 	mov    0x0(%rip),%rax        # 237a <dtls1_read_failed+0x1c>
    237a:	b9 40 04 00 00       	mov    $0x440,%ecx
    237f:	ba 00 00 00 00       	mov    $0x0,%edx
    2384:	be 00 00 00 00       	mov    $0x0,%esi
    2389:	48 89 c7             	mov    %rax,%rdi
    238c:	b8 00 00 00 00       	mov    $0x0,%eax
    2391:	e8 00 00 00 00       	callq  2396 <dtls1_read_failed+0x38>
    2396:	b8 01 00 00 00       	mov    $0x1,%eax
    239b:	eb 62                	jmp    23ff <dtls1_read_failed+0xa1>
    239d:	48 8b 45 f8          	mov    -0x8(%rbp),%rax
    23a1:	48 89 c7             	mov    %rax,%rdi
    23a4:	e8 00 00 00 00       	callq  23a9 <dtls1_read_failed+0x4b>
    23a9:	85 c0                	test   %eax,%eax
    23ab:	75 05                	jne    23b2 <dtls1_read_failed+0x54>
    23ad:	8b 45 f4             	mov    -0xc(%rbp),%eax
    23b0:	eb 4d                	jmp    23ff <dtls1_read_failed+0xa1>
    23b2:	48 8b 45 f8          	mov    -0x8(%rbp),%rax
    23b6:	48 89 c7             	mov    %rax,%rdi
    23b9:	e8 00 00 00 00       	callq  23be <dtls1_read_failed+0x60>
    23be:	25 00 30 00 00       	and    $0x3000,%eax
    23c3:	85 c0                	test   %eax,%eax
    23c5:	75 2c                	jne    23f3 <dtls1_read_failed+0x95>
    23c7:	48 8b 45 f8          	mov    -0x8(%rbp),%rax
    23cb:	8b 80 a4 02 00 00    	mov    0x2a4(%rax),%eax
    23d1:	85 c0                	test   %eax,%eax
    23d3:	75 1e                	jne    23f3 <dtls1_read_failed+0x95>
    23d5:	48 8b 45 f8          	mov    -0x8(%rbp),%rax
    23d9:	48 89 c7             	mov    %rax,%rdi
    23dc:	e8 00 00 00 00       	callq  23e1 <dtls1_read_failed+0x83>
    23e1:	be 01 00 00 00       	mov    $0x1,%esi
    23e6:	48 89 c7             	mov    %rax,%rdi
    23e9:	e8 00 00 00 00       	callq  23ee <dtls1_read_failed+0x90>
    23ee:	8b 45 f4             	mov    -0xc(%rbp),%eax
    23f1:	eb 0c                	jmp    23ff <dtls1_read_failed+0xa1>
    23f3:	48 8b 45 f8          	mov    -0x8(%rbp),%rax
    23f7:	48 89 c7             	mov    %rax,%rdi
    23fa:	e8 00 00 00 00       	callq  23ff <dtls1_read_failed+0xa1>
    23ff:	c9                   	leaveq 
    2400:	c3                   	retq   

0000000000002401 <dtls1_get_queue_priority>:
    2401:	55                   	push   %rbp
    2402:	48 89 e5             	mov    %rsp,%rbp
    2405:	89 f8                	mov    %edi,%eax
    2407:	89 75 f8             	mov    %esi,-0x8(%rbp)
    240a:	66 89 45 fc          	mov    %ax,-0x4(%rbp)
    240e:	0f b7 45 fc          	movzwl -0x4(%rbp),%eax
    2412:	01 c0                	add    %eax,%eax
    2414:	2b 45 f8             	sub    -0x8(%rbp),%eax
    2417:	5d                   	pop    %rbp
    2418:	c3                   	retq   

0000000000002419 <dtls1_retransmit_buffered_messages>:
    2419:	55                   	push   %rbp
    241a:	48 89 e5             	mov    %rsp,%rbp
    241d:	48 83 ec 40          	sub    $0x40,%rsp
    2421:	48 89 7d c8          	mov    %rdi,-0x38(%rbp)
    2425:	48 8b 45 c8          	mov    -0x38(%rbp),%rax
    2429:	48 8b 80 88 00 00 00 	mov    0x88(%rax),%rax
    2430:	48 8b 80 68 02 00 00 	mov    0x268(%rax),%rax
    2437:	48 89 45 f0          	mov    %rax,-0x10(%rbp)
    243b:	c7 45 dc 00 00 00 00 	movl   $0x0,-0x24(%rbp)
    2442:	48 8b 45 f0          	mov    -0x10(%rbp),%rax
    2446:	48 89 c7             	mov    %rax,%rdi
    2449:	e8 00 00 00 00       	callq  244e <dtls1_retransmit_buffered_messages+0x35>
    244e:	48 89 45 e0          	mov    %rax,-0x20(%rbp)
    2452:	48 8d 45 e0          	lea    -0x20(%rbp),%rax
    2456:	48 89 c7             	mov    %rax,%rdi
    2459:	e8 00 00 00 00       	callq  245e <dtls1_retransmit_buffered_messages+0x45>
    245e:	48 89 45 f8          	mov    %rax,-0x8(%rbp)
    2462:	e9 84 00 00 00       	jmpq   24eb <dtls1_retransmit_buffered_messages+0xd2>
    2467:	48 8b 45 f8          	mov    -0x8(%rbp),%rax
    246b:	48 8b 40 08          	mov    0x8(%rax),%rax
    246f:	48 89 45 e8          	mov    %rax,-0x18(%rbp)
    2473:	48 8b 45 e8          	mov    -0x18(%rbp),%rax
    2477:	8b 40 28             	mov    0x28(%rax),%eax
    247a:	89 c2                	mov    %eax,%edx
    247c:	48 8b 45 e8          	mov    -0x18(%rbp),%rax
    2480:	0f b7 40 10          	movzwl 0x10(%rax),%eax
    2484:	0f b7 c0             	movzwl %ax,%eax
    2487:	89 d6                	mov    %edx,%esi
    2489:	89 c7                	mov    %eax,%edi
    248b:	e8 00 00 00 00       	callq  2490 <dtls1_retransmit_buffered_messages+0x77>
    2490:	0f b7 f0             	movzwl %ax,%esi
    2493:	48 8d 55 dc          	lea    -0x24(%rbp),%rdx
    2497:	48 8b 45 c8          	mov    -0x38(%rbp),%rax
    249b:	48 89 d1             	mov    %rdx,%rcx
    249e:	ba 00 00 00 00       	mov    $0x0,%edx
    24a3:	48 89 c7             	mov    %rax,%rdi
    24a6:	e8 00 00 00 00       	callq  24ab <dtls1_retransmit_buffered_messages+0x92>
    24ab:	85 c0                	test   %eax,%eax
    24ad:	7f 2c                	jg     24db <dtls1_retransmit_buffered_messages+0xc2>
    24af:	8b 45 dc             	mov    -0x24(%rbp),%eax
    24b2:	85 c0                	test   %eax,%eax
    24b4:	74 25                	je     24db <dtls1_retransmit_buffered_messages+0xc2>
    24b6:	48 8b 05 00 00 00 00 	mov    0x0(%rip),%rax        # 24bd <dtls1_retransmit_buffered_messages+0xa4>
    24bd:	48 89 c1             	mov    %rax,%rcx
    24c0:	ba 22 00 00 00       	mov    $0x22,%edx
    24c5:	be 01 00 00 00       	mov    $0x1,%esi
    24ca:	bf 00 00 00 00       	mov    $0x0,%edi
    24cf:	e8 00 00 00 00       	callq  24d4 <dtls1_retransmit_buffered_messages+0xbb>
    24d4:	b8 ff ff ff ff       	mov    $0xffffffff,%eax
    24d9:	eb 20                	jmp    24fb <dtls1_retransmit_buffered_messages+0xe2>
    24db:	48 8d 45 e0          	lea    -0x20(%rbp),%rax
    24df:	48 89 c7             	mov    %rax,%rdi
    24e2:	e8 00 00 00 00       	callq  24e7 <dtls1_retransmit_buffered_messages+0xce>
    24e7:	48 89 45 f8          	mov    %rax,-0x8(%rbp)
    24eb:	48 83 7d f8 00       	cmpq   $0x0,-0x8(%rbp)
    24f0:	0f 85 71 ff ff ff    	jne    2467 <dtls1_retransmit_buffered_messages+0x4e>
    24f6:	b8 01 00 00 00       	mov    $0x1,%eax
    24fb:	c9                   	leaveq 
    24fc:	c3                   	retq   

00000000000024fd <dtls1_buffer_message>:
    24fd:	55                   	push   %rbp
    24fe:	48 89 e5             	mov    %rsp,%rbp
    2501:	48 83 ec 30          	sub    $0x30,%rsp
    2505:	48 89 7d d8          	mov    %rdi,-0x28(%rbp)
    2509:	89 75 d4             	mov    %esi,-0x2c(%rbp)
    250c:	48 8b 45 d8          	mov    -0x28(%rbp),%rax
    2510:	8b 40 64             	mov    0x64(%rax),%eax
    2513:	85 c0                	test   %eax,%eax
    2515:	74 14                	je     252b <dtls1_buffer_message+0x2e>
    2517:	ba 00 00 00 00       	mov    $0x0,%edx
    251c:	be 98 04 00 00       	mov    $0x498,%esi
    2521:	bf 00 00 00 00       	mov    $0x0,%edi
    2526:	e8 00 00 00 00       	callq  252b <dtls1_buffer_message+0x2e>
    252b:	48 8b 45 d8          	mov    -0x28(%rbp),%rax
    252f:	8b 40 60             	mov    0x60(%rax),%eax
    2532:	48 98                	cltq   
    2534:	be 00 00 00 00       	mov    $0x0,%esi
    2539:	48 89 c7             	mov    %rax,%rdi
    253c:	e8 cb da ff ff       	callq  c <dtls1_hm_fragment_new>
    2541:	48 89 45 f8          	mov    %rax,-0x8(%rbp)
    2545:	48 8b 45 d8          	mov    -0x28(%rbp),%rax
    2549:	8b 40 60             	mov    0x60(%rax),%eax
    254c:	48 63 d0             	movslq %eax,%rdx
    254f:	48 8b 45 d8          	mov    -0x28(%rbp),%rax
    2553:	48 8b 40 50          	mov    0x50(%rax),%rax
    2557:	48 8b 48 08          	mov    0x8(%rax),%rcx
    255b:	48 8b 45 f8          	mov    -0x8(%rbp),%rax
    255f:	48 8b 40 58          	mov    0x58(%rax),%rax
    2563:	48 89 ce             	mov    %rcx,%rsi
    2566:	48 89 c7             	mov    %rax,%rdi
    2569:	e8 00 00 00 00       	callq  256e <dtls1_buffer_message+0x71>
    256e:	83 7d d4 00          	cmpl   $0x0,-0x2c(%rbp)
    2572:	74 52                	je     25c6 <dtls1_buffer_message+0xc9>
    2574:	48 8b 45 d8          	mov    -0x28(%rbp),%rax
    2578:	48 8b 80 88 00 00 00 	mov    0x88(%rax),%rax
    257f:	48 8b 90 90 02 00 00 	mov    0x290(%rax),%rdx
    2586:	48 8b 45 d8          	mov    -0x28(%rbp),%rax
    258a:	8b 00                	mov    (%rax),%eax
    258c:	3d ff fe 00 00       	cmp    $0xfeff,%eax
    2591:	75 07                	jne    259a <dtls1_buffer_message+0x9d>
    2593:	b8 01 00 00 00       	mov    $0x1,%eax
    2598:	eb 05                	jmp    259f <dtls1_buffer_message+0xa2>
    259a:	b8 03 00 00 00       	mov    $0x3,%eax
    259f:	48 01 c2             	add    %rax,%rdx
    25a2:	48 8b 45 d8          	mov    -0x28(%rbp),%rax
    25a6:	8b 40 60             	mov    0x60(%rax),%eax
    25a9:	89 c0                	mov    %eax,%eax
    25ab:	48 39 c2             	cmp    %rax,%rdx
    25ae:	74 4e                	je     25fe <dtls1_buffer_message+0x101>
    25b0:	ba 00 00 00 00       	mov    $0x0,%edx
    25b5:	be a1 04 00 00       	mov    $0x4a1,%esi
    25ba:	bf 00 00 00 00       	mov    $0x0,%edi
    25bf:	e8 00 00 00 00       	callq  25c4 <dtls1_buffer_message+0xc7>
    25c4:	eb 38                	jmp    25fe <dtls1_buffer_message+0x101>
    25c6:	48 8b 45 d8          	mov    -0x28(%rbp),%rax
    25ca:	48 8b 80 88 00 00 00 	mov    0x88(%rax),%rax
    25d1:	48 8b 80 90 02 00 00 	mov    0x290(%rax),%rax
    25d8:	48 8d 50 0c          	lea    0xc(%rax),%rdx
    25dc:	48 8b 45 d8          	mov    -0x28(%rbp),%rax
    25e0:	8b 40 60             	mov    0x60(%rax),%eax
    25e3:	89 c0                	mov    %eax,%eax
    25e5:	48 39 c2             	cmp    %rax,%rdx
    25e8:	74 14                	je     25fe <dtls1_buffer_message+0x101>
    25ea:	ba 00 00 00 00       	mov    $0x0,%edx
    25ef:	be a6 04 00 00       	mov    $0x4a6,%esi
    25f4:	bf 00 00 00 00       	mov    $0x0,%edi
    25f9:	e8 00 00 00 00       	callq  25fe <dtls1_buffer_message+0x101>
    25fe:	48 8b 45 d8          	mov    -0x28(%rbp),%rax
    2602:	48 8b 80 88 00 00 00 	mov    0x88(%rax),%rax
    2609:	48 8b 90 90 02 00 00 	mov    0x290(%rax),%rdx
    2610:	48 8b 45 f8          	mov    -0x8(%rbp),%rax
    2614:	48 89 50 08          	mov    %rdx,0x8(%rax)
    2618:	48 8b 45 d8          	mov    -0x28(%rbp),%rax
    261c:	48 8b 80 88 00 00 00 	mov    0x88(%rax),%rax
    2623:	0f b7 90 98 02 00 00 	movzwl 0x298(%rax),%edx
    262a:	48 8b 45 f8          	mov    -0x8(%rbp),%rax
    262e:	66 89 50 10          	mov    %dx,0x10(%rax)
    2632:	48 8b 45 d8          	mov    -0x28(%rbp),%rax
    2636:	48 8b 80 88 00 00 00 	mov    0x88(%rax),%rax
    263d:	0f b6 90 88 02 00 00 	movzbl 0x288(%rax),%edx
    2644:	48 8b 45 f8          	mov    -0x8(%rbp),%rax
    2648:	88 10                	mov    %dl,(%rax)
    264a:	48 8b 45 f8          	mov    -0x8(%rbp),%rax
    264e:	48 c7 40 18 00 00 00 	movq   $0x0,0x18(%rax)
    2655:	00 
    2656:	48 8b 45 d8          	mov    -0x28(%rbp),%rax
    265a:	48 8b 80 88 00 00 00 	mov    0x88(%rax),%rax
    2661:	48 8b 90 90 02 00 00 	mov    0x290(%rax),%rdx
    2668:	48 8b 45 f8          	mov    -0x8(%rbp),%rax
    266c:	48 89 50 20          	mov    %rdx,0x20(%rax)
    2670:	8b 55 d4             	mov    -0x2c(%rbp),%edx
    2673:	48 8b 45 f8          	mov    -0x8(%rbp),%rax
    2677:	89 50 28             	mov    %edx,0x28(%rax)
    267a:	48 8b 45 d8          	mov    -0x28(%rbp),%rax
    267e:	48 8b 90 e8 00 00 00 	mov    0xe8(%rax),%rdx
    2685:	48 8b 45 f8          	mov    -0x8(%rbp),%rax
    2689:	48 89 50 30          	mov    %rdx,0x30(%rax)
    268d:	48 8b 45 d8          	mov    -0x28(%rbp),%rax
    2691:	48 8b 90 f0 00 00 00 	mov    0xf0(%rax),%rdx
    2698:	48 8b 45 f8          	mov    -0x8(%rbp),%rax
    269c:	48 89 50 38          	mov    %rdx,0x38(%rax)
    26a0:	48 8b 45 d8          	mov    -0x28(%rbp),%rax
    26a4:	48 8b 90 f8 00 00 00 	mov    0xf8(%rax),%rdx
    26ab:	48 8b 45 f8          	mov    -0x8(%rbp),%rax
    26af:	48 89 50 40          	mov    %rdx,0x40(%rax)
    26b3:	48 8b 45 d8          	mov    -0x28(%rbp),%rax
    26b7:	48 8b 90 30 01 00 00 	mov    0x130(%rax),%rdx
    26be:	48 8b 45 f8          	mov    -0x8(%rbp),%rax
    26c2:	48 89 50 48          	mov    %rdx,0x48(%rax)
    26c6:	48 8b 45 d8          	mov    -0x28(%rbp),%rax
    26ca:	48 8b 80 88 00 00 00 	mov    0x88(%rax),%rax
    26d1:	0f b7 90 0a 02 00 00 	movzwl 0x20a(%rax),%edx
    26d8:	48 8b 45 f8          	mov    -0x8(%rbp),%rax
    26dc:	66 89 50 50          	mov    %dx,0x50(%rax)
    26e0:	48 8d 45 e0          	lea    -0x20(%rbp),%rax
    26e4:	ba 08 00 00 00       	mov    $0x8,%edx
    26e9:	be 00 00 00 00       	mov    $0x0,%esi
    26ee:	48 89 c7             	mov    %rax,%rdi
    26f1:	e8 00 00 00 00       	callq  26f6 <dtls1_buffer_message+0x1f9>
    26f6:	48 8b 45 f8          	mov    -0x8(%rbp),%rax
    26fa:	8b 40 28             	mov    0x28(%rax),%eax
    26fd:	89 c2                	mov    %eax,%edx
    26ff:	48 8b 45 f8          	mov    -0x8(%rbp),%rax
    2703:	0f b7 40 10          	movzwl 0x10(%rax),%eax
    2707:	0f b7 c0             	movzwl %ax,%eax
    270a:	89 d6                	mov    %edx,%esi
    270c:	89 c7                	mov    %eax,%edi
    270e:	e8 00 00 00 00       	callq  2713 <dtls1_buffer_message+0x216>
    2713:	c1 f8 08             	sar    $0x8,%eax
    2716:	88 45 e6             	mov    %al,-0x1a(%rbp)
    2719:	48 8b 45 f8          	mov    -0x8(%rbp),%rax
    271d:	8b 40 28             	mov    0x28(%rax),%eax
    2720:	89 c2                	mov    %eax,%edx
    2722:	48 8b 45 f8          	mov    -0x8(%rbp),%rax
    2726:	0f b7 40 10          	movzwl 0x10(%rax),%eax
    272a:	0f b7 c0             	movzwl %ax,%eax
    272d:	89 d6                	mov    %edx,%esi
    272f:	89 c7                	mov    %eax,%edi
    2731:	e8 00 00 00 00       	callq  2736 <dtls1_buffer_message+0x239>
    2736:	88 45 e7             	mov    %al,-0x19(%rbp)
    2739:	48 8b 55 f8          	mov    -0x8(%rbp),%rdx
    273d:	48 8d 45 e0          	lea    -0x20(%rbp),%rax
    2741:	48 89 d6             	mov    %rdx,%rsi
    2744:	48 89 c7             	mov    %rax,%rdi
    2747:	e8 00 00 00 00       	callq  274c <dtls1_buffer_message+0x24f>
    274c:	48 89 45 f0          	mov    %rax,-0x10(%rbp)
    2750:	48 83 7d f0 00       	cmpq   $0x0,-0x10(%rbp)
    2755:	75 13                	jne    276a <dtls1_buffer_message+0x26d>
    2757:	48 8b 45 f8          	mov    -0x8(%rbp),%rax
    275b:	48 89 c7             	mov    %rax,%rdi
    275e:	e8 c8 d9 ff ff       	callq  12b <dtls1_hm_fragment_free>
    2763:	b8 00 00 00 00       	mov    $0x0,%eax
    2768:	eb 26                	jmp    2790 <dtls1_buffer_message+0x293>
    276a:	48 8b 45 d8          	mov    -0x28(%rbp),%rax
    276e:	48 8b 80 88 00 00 00 	mov    0x88(%rax),%rax
    2775:	48 8b 80 68 02 00 00 	mov    0x268(%rax),%rax
    277c:	48 8b 55 f0          	mov    -0x10(%rbp),%rdx
    2780:	48 89 d6             	mov    %rdx,%rsi
    2783:	48 89 c7             	mov    %rax,%rdi
    2786:	e8 00 00 00 00       	callq  278b <dtls1_buffer_message+0x28e>
    278b:	b8 01 00 00 00       	mov    $0x1,%eax
    2790:	c9                   	leaveq 
    2791:	c3                   	retq   

0000000000002792 <dtls1_retransmit_message>:
    2792:	55                   	push   %rbp
    2793:	48 89 e5             	mov    %rsp,%rbp
    2796:	48 81 ec 90 00 00 00 	sub    $0x90,%rsp
    279d:	48 89 7d 88          	mov    %rdi,-0x78(%rbp)
    27a1:	89 f0                	mov    %esi,%eax
    27a3:	48 89 95 78 ff ff ff 	mov    %rdx,-0x88(%rbp)
    27aa:	48 89 8d 70 ff ff ff 	mov    %rcx,-0x90(%rbp)
    27b1:	66 89 45 84          	mov    %ax,-0x7c(%rbp)
    27b5:	48 8d 45 d0          	lea    -0x30(%rbp),%rax
    27b9:	ba 08 00 00 00       	mov    $0x8,%edx
    27be:	be 00 00 00 00       	mov    $0x0,%esi
    27c3:	48 89 c7             	mov    %rax,%rdi
    27c6:	e8 00 00 00 00       	callq  27cb <dtls1_retransmit_message+0x39>
    27cb:	0f b7 45 84          	movzwl -0x7c(%rbp),%eax
    27cf:	66 c1 e8 08          	shr    $0x8,%ax
    27d3:	88 45 d6             	mov    %al,-0x2a(%rbp)
    27d6:	0f b7 45 84          	movzwl -0x7c(%rbp),%eax
    27da:	88 45 d7             	mov    %al,-0x29(%rbp)
    27dd:	48 8b 45 88          	mov    -0x78(%rbp),%rax
    27e1:	48 8b 80 88 00 00 00 	mov    0x88(%rax),%rax
    27e8:	48 8b 80 68 02 00 00 	mov    0x268(%rax),%rax
    27ef:	48 8d 55 d0          	lea    -0x30(%rbp),%rdx
    27f3:	48 89 d6             	mov    %rdx,%rsi
    27f6:	48 89 c7             	mov    %rax,%rdi
    27f9:	e8 00 00 00 00       	callq  27fe <dtls1_retransmit_message+0x6c>
    27fe:	48 89 45 f0          	mov    %rax,-0x10(%rbp)
    2802:	48 83 7d f0 00       	cmpq   $0x0,-0x10(%rbp)
    2807:	75 34                	jne    283d <dtls1_retransmit_message+0xab>
    2809:	0f b7 55 84          	movzwl -0x7c(%rbp),%edx
    280d:	48 8b 05 00 00 00 00 	mov    0x0(%rip),%rax        # 2814 <dtls1_retransmit_message+0x82>
    2814:	be 00 00 00 00       	mov    $0x0,%esi
    2819:	48 89 c7             	mov    %rax,%rdi
    281c:	b8 00 00 00 00       	mov    $0x0,%eax
    2821:	e8 00 00 00 00       	callq  2826 <dtls1_retransmit_message+0x94>
    2826:	48 8b 85 70 ff ff ff 	mov    -0x90(%rbp),%rax
    282d:	c7 00 00 00 00 00    	movl   $0x0,(%rax)
    2833:	b8 00 00 00 00       	mov    $0x0,%eax
    2838:	e9 0b 03 00 00       	jmpq   2b48 <dtls1_retransmit_message+0x3b6>
    283d:	48 8b 85 70 ff ff ff 	mov    -0x90(%rbp),%rax
    2844:	c7 00 01 00 00 00    	movl   $0x1,(%rax)
    284a:	48 8b 45 f0          	mov    -0x10(%rbp),%rax
    284e:	48 8b 40 08          	mov    0x8(%rax),%rax
    2852:	48 89 45 e8          	mov    %rax,-0x18(%rbp)
    2856:	48 8b 45 e8          	mov    -0x18(%rbp),%rax
    285a:	8b 40 28             	mov    0x28(%rax),%eax
    285d:	85 c0                	test   %eax,%eax
    285f:	74 0a                	je     286b <dtls1_retransmit_message+0xd9>
    2861:	48 c7 45 f8 01 00 00 	movq   $0x1,-0x8(%rbp)
    2868:	00 
    2869:	eb 08                	jmp    2873 <dtls1_retransmit_message+0xe1>
    286b:	48 c7 45 f8 0c 00 00 	movq   $0xc,-0x8(%rbp)
    2872:	00 
    2873:	48 8b 45 e8          	mov    -0x18(%rbp),%rax
    2877:	48 8b 50 08          	mov    0x8(%rax),%rdx
    287b:	48 8b 45 f8          	mov    -0x8(%rbp),%rax
    287f:	48 01 c2             	add    %rax,%rdx
    2882:	48 8b 45 e8          	mov    -0x18(%rbp),%rax
    2886:	48 8b 48 58          	mov    0x58(%rax),%rcx
    288a:	48 8b 45 88          	mov    -0x78(%rbp),%rax
    288e:	48 8b 40 50          	mov    0x50(%rax),%rax
    2892:	48 8b 40 08          	mov    0x8(%rax),%rax
    2896:	48 89 ce             	mov    %rcx,%rsi
    2899:	48 89 c7             	mov    %rax,%rdi
    289c:	e8 00 00 00 00       	callq  28a1 <dtls1_retransmit_message+0x10f>
    28a1:	48 8b 45 e8          	mov    -0x18(%rbp),%rax
    28a5:	48 8b 40 08          	mov    0x8(%rax),%rax
    28a9:	89 c2                	mov    %eax,%edx
    28ab:	48 8b 45 f8          	mov    -0x8(%rbp),%rax
    28af:	01 d0                	add    %edx,%eax
    28b1:	89 c2                	mov    %eax,%edx
    28b3:	48 8b 45 88          	mov    -0x78(%rbp),%rax
    28b7:	89 50 60             	mov    %edx,0x60(%rax)
    28ba:	48 8b 45 e8          	mov    -0x18(%rbp),%rax
    28be:	48 8b 78 20          	mov    0x20(%rax),%rdi
    28c2:	48 8b 45 e8          	mov    -0x18(%rbp),%rax
    28c6:	0f b7 40 10          	movzwl 0x10(%rax),%eax
    28ca:	0f b7 c8             	movzwl %ax,%ecx
    28cd:	48 8b 45 e8          	mov    -0x18(%rbp),%rax
    28d1:	48 8b 50 08          	mov    0x8(%rax),%rdx
    28d5:	48 8b 45 e8          	mov    -0x18(%rbp),%rax
    28d9:	0f b6 00             	movzbl (%rax),%eax
    28dc:	0f b6 f0             	movzbl %al,%esi
    28df:	48 8b 45 88          	mov    -0x78(%rbp),%rax
    28e3:	49 89 f9             	mov    %rdi,%r9
    28e6:	41 b8 00 00 00 00    	mov    $0x0,%r8d
    28ec:	48 89 c7             	mov    %rax,%rdi
    28ef:	e8 84 03 00 00       	callq  2c78 <dtls1_set_message_header_int>
    28f4:	48 8b 45 88          	mov    -0x78(%rbp),%rax
    28f8:	48 8b 80 e8 00 00 00 	mov    0xe8(%rax),%rax
    28ff:	48 89 45 a0          	mov    %rax,-0x60(%rbp)
    2903:	48 8b 45 88          	mov    -0x78(%rbp),%rax
    2907:	48 8b 80 f0 00 00 00 	mov    0xf0(%rax),%rax
    290e:	48 89 45 a8          	mov    %rax,-0x58(%rbp)
    2912:	48 8b 45 88          	mov    -0x78(%rbp),%rax
    2916:	48 8b 80 f8 00 00 00 	mov    0xf8(%rax),%rax
    291d:	48 89 45 b0          	mov    %rax,-0x50(%rbp)
    2921:	48 8b 45 88          	mov    -0x78(%rbp),%rax
    2925:	48 8b 80 30 01 00 00 	mov    0x130(%rax),%rax
    292c:	48 89 45 b8          	mov    %rax,-0x48(%rbp)
    2930:	48 8b 45 88          	mov    -0x78(%rbp),%rax
    2934:	48 8b 80 88 00 00 00 	mov    0x88(%rax),%rax
    293b:	0f b7 80 0a 02 00 00 	movzwl 0x20a(%rax),%eax
    2942:	66 89 45 c0          	mov    %ax,-0x40(%rbp)
    2946:	48 8b 45 88          	mov    -0x78(%rbp),%rax
    294a:	48 8b 80 88 00 00 00 	mov    0x88(%rax),%rax
    2951:	0f b7 80 0a 02 00 00 	movzwl 0x20a(%rax),%eax
    2958:	66 89 45 c0          	mov    %ax,-0x40(%rbp)
    295c:	48 8b 45 88          	mov    -0x78(%rbp),%rax
    2960:	48 8b 80 88 00 00 00 	mov    0x88(%rax),%rax
    2967:	c7 80 70 03 00 00 01 	movl   $0x1,0x370(%rax)
    296e:	00 00 00 
    2971:	48 8b 45 e8          	mov    -0x18(%rbp),%rax
    2975:	48 8b 50 30          	mov    0x30(%rax),%rdx
    2979:	48 8b 45 88          	mov    -0x78(%rbp),%rax
    297d:	48 89 90 e8 00 00 00 	mov    %rdx,0xe8(%rax)
    2984:	48 8b 45 e8          	mov    -0x18(%rbp),%rax
    2988:	48 8b 50 38          	mov    0x38(%rax),%rdx
    298c:	48 8b 45 88          	mov    -0x78(%rbp),%rax
    2990:	48 89 90 f0 00 00 00 	mov    %rdx,0xf0(%rax)
    2997:	48 8b 45 e8          	mov    -0x18(%rbp),%rax
    299b:	48 8b 50 40          	mov    0x40(%rax),%rdx
    299f:	48 8b 45 88          	mov    -0x78(%rbp),%rax
    29a3:	48 89 90 f8 00 00 00 	mov    %rdx,0xf8(%rax)
    29aa:	48 8b 45 e8          	mov    -0x18(%rbp),%rax
    29ae:	48 8b 50 48          	mov    0x48(%rax),%rdx
    29b2:	48 8b 45 88          	mov    -0x78(%rbp),%rax
    29b6:	48 89 90 30 01 00 00 	mov    %rdx,0x130(%rax)
    29bd:	48 8b 45 88          	mov    -0x78(%rbp),%rax
    29c1:	48 8b 80 88 00 00 00 	mov    0x88(%rax),%rax
    29c8:	48 8b 55 e8          	mov    -0x18(%rbp),%rdx
    29cc:	0f b7 52 50          	movzwl 0x50(%rdx),%edx
    29d0:	66 89 90 0a 02 00 00 	mov    %dx,0x20a(%rax)
    29d7:	48 8b 45 e8          	mov    -0x18(%rbp),%rax
    29db:	0f b7 40 50          	movzwl 0x50(%rax),%eax
    29df:	0f b7 c0             	movzwl %ax,%eax
    29e2:	0f b7 55 c0          	movzwl -0x40(%rbp),%edx
    29e6:	0f b7 d2             	movzwl %dx,%edx
    29e9:	83 ea 01             	sub    $0x1,%edx
    29ec:	39 d0                	cmp    %edx,%eax
    29ee:	75 44                	jne    2a34 <dtls1_retransmit_message+0x2a2>
    29f0:	48 8b 45 88          	mov    -0x78(%rbp),%rax
    29f4:	48 8b 80 80 00 00 00 	mov    0x80(%rax),%rax
    29fb:	48 8b 40 58          	mov    0x58(%rax),%rax
    29ff:	48 89 45 90          	mov    %rax,-0x70(%rbp)
    2a03:	48 8b 45 88          	mov    -0x78(%rbp),%rax
    2a07:	48 8b 80 88 00 00 00 	mov    0x88(%rax),%rax
    2a0e:	48 8d 88 36 02 00 00 	lea    0x236(%rax),%rcx
    2a15:	48 8b 45 88          	mov    -0x78(%rbp),%rax
    2a19:	48 8b 80 80 00 00 00 	mov    0x80(%rax),%rax
    2a20:	48 83 c0 58          	add    $0x58,%rax
    2a24:	ba 08 00 00 00       	mov    $0x8,%edx
    2a29:	48 89 ce             	mov    %rcx,%rsi
    2a2c:	48 89 c7             	mov    %rax,%rdi
    2a2f:	e8 00 00 00 00       	callq  2a34 <dtls1_retransmit_message+0x2a2>
    2a34:	48 8b 45 e8          	mov    -0x18(%rbp),%rax
    2a38:	8b 40 28             	mov    0x28(%rax),%eax
    2a3b:	85 c0                	test   %eax,%eax
    2a3d:	74 07                	je     2a46 <dtls1_retransmit_message+0x2b4>
    2a3f:	b8 14 00 00 00       	mov    $0x14,%eax
    2a44:	eb 05                	jmp    2a4b <dtls1_retransmit_message+0x2b9>
    2a46:	b8 16 00 00 00       	mov    $0x16,%eax
    2a4b:	48 8b 55 88          	mov    -0x78(%rbp),%rdx
    2a4f:	89 c6                	mov    %eax,%esi
    2a51:	48 89 d7             	mov    %rdx,%rdi
    2a54:	e8 00 00 00 00       	callq  2a59 <dtls1_retransmit_message+0x2c7>
    2a59:	89 45 e4             	mov    %eax,-0x1c(%rbp)
    2a5c:	48 8b 55 a0          	mov    -0x60(%rbp),%rdx
    2a60:	48 8b 45 88          	mov    -0x78(%rbp),%rax
    2a64:	48 89 90 e8 00 00 00 	mov    %rdx,0xe8(%rax)
    2a6b:	48 8b 55 a8          	mov    -0x58(%rbp),%rdx
    2a6f:	48 8b 45 88          	mov    -0x78(%rbp),%rax
    2a73:	48 89 90 f0 00 00 00 	mov    %rdx,0xf0(%rax)
    2a7a:	48 8b 55 b0          	mov    -0x50(%rbp),%rdx
    2a7e:	48 8b 45 88          	mov    -0x78(%rbp),%rax
    2a82:	48 89 90 f8 00 00 00 	mov    %rdx,0xf8(%rax)
    2a89:	48 8b 55 b8          	mov    -0x48(%rbp),%rdx
    2a8d:	48 8b 45 88          	mov    -0x78(%rbp),%rax
    2a91:	48 89 90 30 01 00 00 	mov    %rdx,0x130(%rax)
    2a98:	48 8b 45 88          	mov    -0x78(%rbp),%rax
    2a9c:	48 8b 80 88 00 00 00 	mov    0x88(%rax),%rax
    2aa3:	0f b7 55 c0          	movzwl -0x40(%rbp),%edx
    2aa7:	66 89 90 0a 02 00 00 	mov    %dx,0x20a(%rax)
    2aae:	48 8b 45 e8          	mov    -0x18(%rbp),%rax
    2ab2:	0f b7 40 50          	movzwl 0x50(%rax),%eax
    2ab6:	0f b7 c0             	movzwl %ax,%eax
    2ab9:	0f b7 55 c0          	movzwl -0x40(%rbp),%edx
    2abd:	0f b7 d2             	movzwl %dx,%edx
    2ac0:	83 ea 01             	sub    $0x1,%edx
    2ac3:	39 d0                	cmp    %edx,%eax
    2ac5:	75 46                	jne    2b0d <dtls1_retransmit_message+0x37b>
    2ac7:	48 8b 45 88          	mov    -0x78(%rbp),%rax
    2acb:	48 8b 80 80 00 00 00 	mov    0x80(%rax),%rax
    2ad2:	48 8d 48 58          	lea    0x58(%rax),%rcx
    2ad6:	48 8b 45 88          	mov    -0x78(%rbp),%rax
    2ada:	48 8b 80 88 00 00 00 	mov    0x88(%rax),%rax
    2ae1:	48 05 36 02 00 00    	add    $0x236,%rax
    2ae7:	ba 08 00 00 00       	mov    $0x8,%edx
    2aec:	48 89 ce             	mov    %rcx,%rsi
    2aef:	48 89 c7             	mov    %rax,%rdi
    2af2:	e8 00 00 00 00       	callq  2af7 <dtls1_retransmit_message+0x365>
    2af7:	48 8b 45 88          	mov    -0x78(%rbp),%rax
    2afb:	48 8b 80 80 00 00 00 	mov    0x80(%rax),%rax
    2b02:	48 8d 50 58          	lea    0x58(%rax),%rdx
    2b06:	48 8b 45 90          	mov    -0x70(%rbp),%rax
    2b0a:	48 89 02             	mov    %rax,(%rdx)
    2b0d:	48 8b 45 88          	mov    -0x78(%rbp),%rax
    2b11:	48 8b 80 88 00 00 00 	mov    0x88(%rax),%rax
    2b18:	c7 80 70 03 00 00 00 	movl   $0x0,0x370(%rax)
    2b1f:	00 00 00 
    2b22:	48 8b 45 88          	mov    -0x78(%rbp),%rax
    2b26:	48 89 c7             	mov    %rax,%rdi
    2b29:	e8 00 00 00 00       	callq  2b2e <dtls1_retransmit_message+0x39c>
    2b2e:	b9 00 00 00 00       	mov    $0x0,%ecx
    2b33:	ba 00 00 00 00       	mov    $0x0,%edx
    2b38:	be 0b 00 00 00       	mov    $0xb,%esi
    2b3d:	48 89 c7             	mov    %rax,%rdi
    2b40:	e8 00 00 00 00       	callq  2b45 <dtls1_retransmit_message+0x3b3>
    2b45:	8b 45 e4             	mov    -0x1c(%rbp),%eax
    2b48:	c9                   	leaveq 
    2b49:	c3                   	retq   

0000000000002b4a <dtls1_clear_record_buffer>:
    2b4a:	55                   	push   %rbp
    2b4b:	48 89 e5             	mov    %rsp,%rbp
    2b4e:	48 83 ec 20          	sub    $0x20,%rsp
    2b52:	48 89 7d e8          	mov    %rdi,-0x18(%rbp)
    2b56:	48 8b 45 e8          	mov    -0x18(%rbp),%rax
    2b5a:	48 8b 80 88 00 00 00 	mov    0x88(%rax),%rax
    2b61:	48 8b 80 68 02 00 00 	mov    0x268(%rax),%rax
    2b68:	48 89 c7             	mov    %rax,%rdi
    2b6b:	e8 00 00 00 00       	callq  2b70 <dtls1_clear_record_buffer+0x26>
    2b70:	48 89 45 f8          	mov    %rax,-0x8(%rbp)
    2b74:	eb 3a                	jmp    2bb0 <dtls1_clear_record_buffer+0x66>
    2b76:	48 8b 45 f8          	mov    -0x8(%rbp),%rax
    2b7a:	48 8b 40 08          	mov    0x8(%rax),%rax
    2b7e:	48 89 c7             	mov    %rax,%rdi
    2b81:	e8 a5 d5 ff ff       	callq  12b <dtls1_hm_fragment_free>
    2b86:	48 8b 45 f8          	mov    -0x8(%rbp),%rax
    2b8a:	48 89 c7             	mov    %rax,%rdi
    2b8d:	e8 00 00 00 00       	callq  2b92 <dtls1_clear_record_buffer+0x48>
    2b92:	48 8b 45 e8          	mov    -0x18(%rbp),%rax
    2b96:	48 8b 80 88 00 00 00 	mov    0x88(%rax),%rax
    2b9d:	48 8b 80 68 02 00 00 	mov    0x268(%rax),%rax
    2ba4:	48 89 c7             	mov    %rax,%rdi
    2ba7:	e8 00 00 00 00       	callq  2bac <dtls1_clear_record_buffer+0x62>
    2bac:	48 89 45 f8          	mov    %rax,-0x8(%rbp)
    2bb0:	48 83 7d f8 00       	cmpq   $0x0,-0x8(%rbp)
    2bb5:	75 bf                	jne    2b76 <dtls1_clear_record_buffer+0x2c>
    2bb7:	c9                   	leaveq 
    2bb8:	c3                   	retq   

0000000000002bb9 <dtls1_set_message_header>:
    2bb9:	55                   	push   %rbp
    2bba:	48 89 e5             	mov    %rsp,%rbp
    2bbd:	48 83 ec 30          	sub    $0x30,%rsp
    2bc1:	48 89 7d f8          	mov    %rdi,-0x8(%rbp)
    2bc5:	48 89 75 f0          	mov    %rsi,-0x10(%rbp)
    2bc9:	89 d0                	mov    %edx,%eax
    2bcb:	48 89 4d e0          	mov    %rcx,-0x20(%rbp)
    2bcf:	4c 89 45 d8          	mov    %r8,-0x28(%rbp)
    2bd3:	4c 89 4d d0          	mov    %r9,-0x30(%rbp)
    2bd7:	88 45 ec             	mov    %al,-0x14(%rbp)
    2bda:	48 83 7d d8 00       	cmpq   $0x0,-0x28(%rbp)
    2bdf:	75 55                	jne    2c36 <dtls1_set_message_header+0x7d>
    2be1:	48 8b 45 f8          	mov    -0x8(%rbp),%rax
    2be5:	48 8b 80 88 00 00 00 	mov    0x88(%rax),%rax
    2bec:	8b 80 78 03 00 00    	mov    0x378(%rax),%eax
    2bf2:	85 c0                	test   %eax,%eax
    2bf4:	75 40                	jne    2c36 <dtls1_set_message_header+0x7d>
    2bf6:	48 8b 45 f8          	mov    -0x8(%rbp),%rax
    2bfa:	48 8b 80 88 00 00 00 	mov    0x88(%rax),%rax
    2c01:	48 8b 55 f8          	mov    -0x8(%rbp),%rdx
    2c05:	48 8b 92 88 00 00 00 	mov    0x88(%rdx),%rdx
    2c0c:	0f b7 92 32 02 00 00 	movzwl 0x232(%rdx),%edx
    2c13:	66 89 90 30 02 00 00 	mov    %dx,0x230(%rax)
    2c1a:	48 8b 45 f8          	mov    -0x8(%rbp),%rax
    2c1e:	48 8b 80 88 00 00 00 	mov    0x88(%rax),%rax
    2c25:	0f b7 90 32 02 00 00 	movzwl 0x232(%rax),%edx
    2c2c:	83 c2 01             	add    $0x1,%edx
    2c2f:	66 89 90 32 02 00 00 	mov    %dx,0x232(%rax)
    2c36:	48 8b 45 f8          	mov    -0x8(%rbp),%rax
    2c3a:	48 8b 80 88 00 00 00 	mov    0x88(%rax),%rax
    2c41:	0f b7 80 30 02 00 00 	movzwl 0x230(%rax),%eax
    2c48:	0f b7 c8             	movzwl %ax,%ecx
    2c4b:	0f b6 75 ec          	movzbl -0x14(%rbp),%esi
    2c4f:	4c 8b 45 d0          	mov    -0x30(%rbp),%r8
    2c53:	48 8b 7d d8          	mov    -0x28(%rbp),%rdi
    2c57:	48 8b 55 e0          	mov    -0x20(%rbp),%rdx
    2c5b:	48 8b 45 f8          	mov    -0x8(%rbp),%rax
    2c5f:	4d 89 c1             	mov    %r8,%r9
    2c62:	49 89 f8             	mov    %rdi,%r8
    2c65:	48 89 c7             	mov    %rax,%rdi
    2c68:	e8 0b 00 00 00       	callq  2c78 <dtls1_set_message_header_int>
    2c6d:	48 83 45 f0 0c       	addq   $0xc,-0x10(%rbp)
    2c72:	48 8b 45 f0          	mov    -0x10(%rbp),%rax
    2c76:	c9                   	leaveq 
    2c77:	c3                   	retq   

0000000000002c78 <dtls1_set_message_header_int>:
    2c78:	55                   	push   %rbp
    2c79:	48 89 e5             	mov    %rsp,%rbp
    2c7c:	48 89 7d e8          	mov    %rdi,-0x18(%rbp)
    2c80:	48 89 55 d8          	mov    %rdx,-0x28(%rbp)
    2c84:	89 c8                	mov    %ecx,%eax
    2c86:	4c 89 45 d0          	mov    %r8,-0x30(%rbp)
    2c8a:	4c 89 4d c8          	mov    %r9,-0x38(%rbp)
    2c8e:	40 88 75 e4          	mov    %sil,-0x1c(%rbp)
    2c92:	66 89 45 e0          	mov    %ax,-0x20(%rbp)
    2c96:	48 8b 45 e8          	mov    -0x18(%rbp),%rax
    2c9a:	48 8b 80 88 00 00 00 	mov    0x88(%rax),%rax
    2ca1:	48 05 88 02 00 00    	add    $0x288,%rax
    2ca7:	48 89 45 f8          	mov    %rax,-0x8(%rbp)
    2cab:	48 8b 45 f8          	mov    -0x8(%rbp),%rax
    2caf:	0f b6 55 e4          	movzbl -0x1c(%rbp),%edx
    2cb3:	88 10                	mov    %dl,(%rax)
    2cb5:	48 8b 45 f8          	mov    -0x8(%rbp),%rax
    2cb9:	48 8b 55 d8          	mov    -0x28(%rbp),%rdx
    2cbd:	48 89 50 08          	mov    %rdx,0x8(%rax)
    2cc1:	48 8b 45 f8          	mov    -0x8(%rbp),%rax
    2cc5:	0f b7 55 e0          	movzwl -0x20(%rbp),%edx
    2cc9:	66 89 50 10          	mov    %dx,0x10(%rax)
    2ccd:	48 8b 45 f8          	mov    -0x8(%rbp),%rax
    2cd1:	48 8b 55 d0          	mov    -0x30(%rbp),%rdx
    2cd5:	48 89 50 18          	mov    %rdx,0x18(%rax)
    2cd9:	48 8b 45 f8          	mov    -0x8(%rbp),%rax
    2cdd:	48 8b 55 c8          	mov    -0x38(%rbp),%rdx
    2ce1:	48 89 50 20          	mov    %rdx,0x20(%rax)
    2ce5:	5d                   	pop    %rbp
    2ce6:	c3                   	retq   

0000000000002ce7 <dtls1_fix_message_header>:
    2ce7:	55                   	push   %rbp
    2ce8:	48 89 e5             	mov    %rsp,%rbp
    2ceb:	48 89 7d e8          	mov    %rdi,-0x18(%rbp)
    2cef:	48 89 75 e0          	mov    %rsi,-0x20(%rbp)
    2cf3:	48 89 55 d8          	mov    %rdx,-0x28(%rbp)
    2cf7:	48 8b 45 e8          	mov    -0x18(%rbp),%rax
    2cfb:	48 8b 80 88 00 00 00 	mov    0x88(%rax),%rax
    2d02:	48 05 88 02 00 00    	add    $0x288,%rax
    2d08:	48 89 45 f8          	mov    %rax,-0x8(%rbp)
    2d0c:	48 8b 45 f8          	mov    -0x8(%rbp),%rax
    2d10:	48 8b 55 e0          	mov    -0x20(%rbp),%rdx
    2d14:	48 89 50 18          	mov    %rdx,0x18(%rax)
    2d18:	48 8b 45 f8          	mov    -0x8(%rbp),%rax
    2d1c:	48 8b 55 d8          	mov    -0x28(%rbp),%rdx
    2d20:	48 89 50 20          	mov    %rdx,0x20(%rax)
    2d24:	5d                   	pop    %rbp
    2d25:	c3                   	retq   

0000000000002d26 <dtls1_write_message_header>:
    2d26:	55                   	push   %rbp
    2d27:	48 89 e5             	mov    %rsp,%rbp
    2d2a:	48 89 7d e8          	mov    %rdi,-0x18(%rbp)
    2d2e:	48 89 75 e0          	mov    %rsi,-0x20(%rbp)
    2d32:	48 8b 45 e8          	mov    -0x18(%rbp),%rax
    2d36:	48 8b 80 88 00 00 00 	mov    0x88(%rax),%rax
    2d3d:	48 05 88 02 00 00    	add    $0x288,%rax
    2d43:	48 89 45 f8          	mov    %rax,-0x8(%rbp)
    2d47:	48 8b 45 e0          	mov    -0x20(%rbp),%rax
    2d4b:	48 8d 50 01          	lea    0x1(%rax),%rdx
    2d4f:	48 89 55 e0          	mov    %rdx,-0x20(%rbp)
    2d53:	48 8b 55 f8          	mov    -0x8(%rbp),%rdx
    2d57:	0f b6 12             	movzbl (%rdx),%edx
    2d5a:	88 10                	mov    %dl,(%rax)
    2d5c:	48 8b 45 f8          	mov    -0x8(%rbp),%rax
    2d60:	48 8b 40 08          	mov    0x8(%rax),%rax
    2d64:	48 c1 e8 10          	shr    $0x10,%rax
    2d68:	89 c2                	mov    %eax,%edx
    2d6a:	48 8b 45 e0          	mov    -0x20(%rbp),%rax
    2d6e:	88 10                	mov    %dl,(%rax)
    2d70:	48 8b 45 e0          	mov    -0x20(%rbp),%rax
    2d74:	48 8d 50 01          	lea    0x1(%rax),%rdx
    2d78:	48 8b 45 f8          	mov    -0x8(%rbp),%rax
    2d7c:	48 8b 40 08          	mov    0x8(%rax),%rax
    2d80:	48 c1 e8 08          	shr    $0x8,%rax
    2d84:	88 02                	mov    %al,(%rdx)
    2d86:	48 8b 45 e0          	mov    -0x20(%rbp),%rax
    2d8a:	48 8d 50 02          	lea    0x2(%rax),%rdx
    2d8e:	48 8b 45 f8          	mov    -0x8(%rbp),%rax
    2d92:	48 8b 40 08          	mov    0x8(%rax),%rax
    2d96:	88 02                	mov    %al,(%rdx)
    2d98:	48 83 45 e0 03       	addq   $0x3,-0x20(%rbp)
    2d9d:	48 8b 45 f8          	mov    -0x8(%rbp),%rax
    2da1:	0f b7 40 10          	movzwl 0x10(%rax),%eax
    2da5:	66 c1 e8 08          	shr    $0x8,%ax
    2da9:	89 c2                	mov    %eax,%edx
    2dab:	48 8b 45 e0          	mov    -0x20(%rbp),%rax
    2daf:	88 10                	mov    %dl,(%rax)
    2db1:	48 8b 45 e0          	mov    -0x20(%rbp),%rax
    2db5:	48 8d 50 01          	lea    0x1(%rax),%rdx
    2db9:	48 8b 45 f8          	mov    -0x8(%rbp),%rax
    2dbd:	0f b7 40 10          	movzwl 0x10(%rax),%eax
    2dc1:	88 02                	mov    %al,(%rdx)
    2dc3:	48 83 45 e0 02       	addq   $0x2,-0x20(%rbp)
    2dc8:	48 8b 45 f8          	mov    -0x8(%rbp),%rax
    2dcc:	48 8b 40 18          	mov    0x18(%rax),%rax
    2dd0:	48 c1 e8 10          	shr    $0x10,%rax
    2dd4:	89 c2                	mov    %eax,%edx
    2dd6:	48 8b 45 e0          	mov    -0x20(%rbp),%rax
    2dda:	88 10                	mov    %dl,(%rax)
    2ddc:	48 8b 45 e0          	mov    -0x20(%rbp),%rax
    2de0:	48 8d 50 01          	lea    0x1(%rax),%rdx
    2de4:	48 8b 45 f8          	mov    -0x8(%rbp),%rax
    2de8:	48 8b 40 18          	mov    0x18(%rax),%rax
    2dec:	48 c1 e8 08          	shr    $0x8,%rax
    2df0:	88 02                	mov    %al,(%rdx)
    2df2:	48 8b 45 e0          	mov    -0x20(%rbp),%rax
    2df6:	48 8d 50 02          	lea    0x2(%rax),%rdx
    2dfa:	48 8b 45 f8          	mov    -0x8(%rbp),%rax
    2dfe:	48 8b 40 18          	mov    0x18(%rax),%rax
    2e02:	88 02                	mov    %al,(%rdx)
    2e04:	48 83 45 e0 03       	addq   $0x3,-0x20(%rbp)
    2e09:	48 8b 45 f8          	mov    -0x8(%rbp),%rax
    2e0d:	48 8b 40 20          	mov    0x20(%rax),%rax
    2e11:	48 c1 e8 10          	shr    $0x10,%rax
    2e15:	89 c2                	mov    %eax,%edx
    2e17:	48 8b 45 e0          	mov    -0x20(%rbp),%rax
    2e1b:	88 10                	mov    %dl,(%rax)
    2e1d:	48 8b 45 e0          	mov    -0x20(%rbp),%rax
    2e21:	48 8d 50 01          	lea    0x1(%rax),%rdx
    2e25:	48 8b 45 f8          	mov    -0x8(%rbp),%rax
    2e29:	48 8b 40 20          	mov    0x20(%rax),%rax
    2e2d:	48 c1 e8 08          	shr    $0x8,%rax
    2e31:	88 02                	mov    %al,(%rdx)
    2e33:	48 8b 45 e0          	mov    -0x20(%rbp),%rax
    2e37:	48 8d 50 02          	lea    0x2(%rax),%rdx
    2e3b:	48 8b 45 f8          	mov    -0x8(%rbp),%rax
    2e3f:	48 8b 40 20          	mov    0x20(%rax),%rax
    2e43:	88 02                	mov    %al,(%rdx)
    2e45:	48 83 45 e0 03       	addq   $0x3,-0x20(%rbp)
    2e4a:	48 8b 45 e0          	mov    -0x20(%rbp),%rax
    2e4e:	5d                   	pop    %rbp
    2e4f:	c3                   	retq   

0000000000002e50 <dtls1_min_mtu>:
    2e50:	55                   	push   %rbp
    2e51:	48 89 e5             	mov    %rsp,%rbp
    2e54:	8b 05 00 00 00 00    	mov    0x0(%rip),%eax        # 2e5a <dtls1_min_mtu+0xa>
    2e5a:	5d                   	pop    %rbp
    2e5b:	c3                   	retq   

0000000000002e5c <dtls1_guess_mtu>:
    2e5c:	55                   	push   %rbp
    2e5d:	48 89 e5             	mov    %rsp,%rbp
    2e60:	89 7d ec             	mov    %edi,-0x14(%rbp)
    2e63:	83 7d ec 00          	cmpl   $0x0,-0x14(%rbp)
    2e67:	75 08                	jne    2e71 <dtls1_guess_mtu+0x15>
    2e69:	8b 05 00 00 00 00    	mov    0x0(%rip),%eax        # 2e6f <dtls1_guess_mtu+0x13>
    2e6f:	eb 31                	jmp    2ea2 <dtls1_guess_mtu+0x46>
    2e71:	c7 45 fc 00 00 00 00 	movl   $0x0,-0x4(%rbp)
    2e78:	eb 1f                	jmp    2e99 <dtls1_guess_mtu+0x3d>
    2e7a:	8b 45 fc             	mov    -0x4(%rbp),%eax
    2e7d:	8b 04 85 00 00 00 00 	mov    0x0(,%rax,4),%eax
    2e84:	3b 45 ec             	cmp    -0x14(%rbp),%eax
    2e87:	73 0c                	jae    2e95 <dtls1_guess_mtu+0x39>
    2e89:	8b 45 fc             	mov    -0x4(%rbp),%eax
    2e8c:	8b 04 85 00 00 00 00 	mov    0x0(,%rax,4),%eax
    2e93:	eb 0d                	jmp    2ea2 <dtls1_guess_mtu+0x46>
    2e95:	83 45 fc 01          	addl   $0x1,-0x4(%rbp)
    2e99:	83 7d fc 02          	cmpl   $0x2,-0x4(%rbp)
    2e9d:	76 db                	jbe    2e7a <dtls1_guess_mtu+0x1e>
    2e9f:	8b 45 ec             	mov    -0x14(%rbp),%eax
    2ea2:	5d                   	pop    %rbp
    2ea3:	c3                   	retq   

0000000000002ea4 <dtls1_get_message_header>:
    2ea4:	55                   	push   %rbp
    2ea5:	48 89 e5             	mov    %rsp,%rbp
    2ea8:	48 83 ec 10          	sub    $0x10,%rsp
    2eac:	48 89 7d f8          	mov    %rdi,-0x8(%rbp)
    2eb0:	48 89 75 f0          	mov    %rsi,-0x10(%rbp)
    2eb4:	48 8b 45 f0          	mov    -0x10(%rbp),%rax
    2eb8:	ba 58 00 00 00       	mov    $0x58,%edx
    2ebd:	be 00 00 00 00       	mov    $0x0,%esi
    2ec2:	48 89 c7             	mov    %rax,%rdi
    2ec5:	e8 00 00 00 00       	callq  2eca <dtls1_get_message_header+0x26>
    2eca:	48 8b 45 f8          	mov    -0x8(%rbp),%rax
    2ece:	48 8d 50 01          	lea    0x1(%rax),%rdx
    2ed2:	48 89 55 f8          	mov    %rdx,-0x8(%rbp)
    2ed6:	0f b6 10             	movzbl (%rax),%edx
    2ed9:	48 8b 45 f0          	mov    -0x10(%rbp),%rax
    2edd:	88 10                	mov    %dl,(%rax)
    2edf:	48 8b 45 f8          	mov    -0x8(%rbp),%rax
    2ee3:	0f b6 00             	movzbl (%rax),%eax
    2ee6:	0f b6 c0             	movzbl %al,%eax
    2ee9:	48 c1 e0 10          	shl    $0x10,%rax
    2eed:	48 89 c2             	mov    %rax,%rdx
    2ef0:	48 8b 45 f8          	mov    -0x8(%rbp),%rax
    2ef4:	48 83 c0 01          	add    $0x1,%rax
    2ef8:	0f b6 00             	movzbl (%rax),%eax
    2efb:	0f b6 c0             	movzbl %al,%eax
    2efe:	48 c1 e0 08          	shl    $0x8,%rax
    2f02:	48 09 c2             	or     %rax,%rdx
    2f05:	48 8b 45 f8          	mov    -0x8(%rbp),%rax
    2f09:	48 83 c0 02          	add    $0x2,%rax
    2f0d:	0f b6 00             	movzbl (%rax),%eax
    2f10:	0f b6 c0             	movzbl %al,%eax
    2f13:	48 09 c2             	or     %rax,%rdx
    2f16:	48 8b 45 f0          	mov    -0x10(%rbp),%rax
    2f1a:	48 89 50 08          	mov    %rdx,0x8(%rax)
    2f1e:	48 83 45 f8 03       	addq   $0x3,-0x8(%rbp)
    2f23:	48 8b 45 f8          	mov    -0x8(%rbp),%rax
    2f27:	0f b6 00             	movzbl (%rax),%eax
    2f2a:	0f b6 c0             	movzbl %al,%eax
    2f2d:	c1 e0 08             	shl    $0x8,%eax
    2f30:	89 c2                	mov    %eax,%edx
    2f32:	48 8b 45 f8          	mov    -0x8(%rbp),%rax
    2f36:	48 83 c0 01          	add    $0x1,%rax
    2f3a:	0f b6 00             	movzbl (%rax),%eax
    2f3d:	0f b6 c0             	movzbl %al,%eax
    2f40:	09 c2                	or     %eax,%edx
    2f42:	48 8b 45 f0          	mov    -0x10(%rbp),%rax
    2f46:	66 89 50 10          	mov    %dx,0x10(%rax)
    2f4a:	48 83 45 f8 02       	addq   $0x2,-0x8(%rbp)
    2f4f:	48 8b 45 f8          	mov    -0x8(%rbp),%rax
    2f53:	0f b6 00             	movzbl (%rax),%eax
    2f56:	0f b6 c0             	movzbl %al,%eax
    2f59:	48 c1 e0 10          	shl    $0x10,%rax
    2f5d:	48 89 c2             	mov    %rax,%rdx
    2f60:	48 8b 45 f8          	mov    -0x8(%rbp),%rax
    2f64:	48 83 c0 01          	add    $0x1,%rax
    2f68:	0f b6 00             	movzbl (%rax),%eax
    2f6b:	0f b6 c0             	movzbl %al,%eax
    2f6e:	48 c1 e0 08          	shl    $0x8,%rax
    2f72:	48 09 c2             	or     %rax,%rdx
    2f75:	48 8b 45 f8          	mov    -0x8(%rbp),%rax
    2f79:	48 83 c0 02          	add    $0x2,%rax
    2f7d:	0f b6 00             	movzbl (%rax),%eax
    2f80:	0f b6 c0             	movzbl %al,%eax
    2f83:	48 09 c2             	or     %rax,%rdx
    2f86:	48 8b 45 f0          	mov    -0x10(%rbp),%rax
    2f8a:	48 89 50 18          	mov    %rdx,0x18(%rax)
    2f8e:	48 83 45 f8 03       	addq   $0x3,-0x8(%rbp)
    2f93:	48 8b 45 f8          	mov    -0x8(%rbp),%rax
    2f97:	0f b6 00             	movzbl (%rax),%eax
    2f9a:	0f b6 c0             	movzbl %al,%eax
    2f9d:	48 c1 e0 10          	shl    $0x10,%rax
    2fa1:	48 89 c2             	mov    %rax,%rdx
    2fa4:	48 8b 45 f8          	mov    -0x8(%rbp),%rax
    2fa8:	48 83 c0 01          	add    $0x1,%rax
    2fac:	0f b6 00             	movzbl (%rax),%eax
    2faf:	0f b6 c0             	movzbl %al,%eax
    2fb2:	48 c1 e0 08          	shl    $0x8,%rax
    2fb6:	48 09 c2             	or     %rax,%rdx
    2fb9:	48 8b 45 f8          	mov    -0x8(%rbp),%rax
    2fbd:	48 83 c0 02          	add    $0x2,%rax
    2fc1:	0f b6 00             	movzbl (%rax),%eax
    2fc4:	0f b6 c0             	movzbl %al,%eax
    2fc7:	48 09 c2             	or     %rax,%rdx
    2fca:	48 8b 45 f0          	mov    -0x10(%rbp),%rax
    2fce:	48 89 50 20          	mov    %rdx,0x20(%rax)
    2fd2:	48 83 45 f8 03       	addq   $0x3,-0x8(%rbp)
    2fd7:	c9                   	leaveq 
    2fd8:	c3                   	retq   

0000000000002fd9 <dtls1_get_ccs_header>:
    2fd9:	55                   	push   %rbp
    2fda:	48 89 e5             	mov    %rsp,%rbp
    2fdd:	48 83 ec 10          	sub    $0x10,%rsp
    2fe1:	48 89 7d f8          	mov    %rdi,-0x8(%rbp)
    2fe5:	48 89 75 f0          	mov    %rsi,-0x10(%rbp)
    2fe9:	48 8b 45 f0          	mov    -0x10(%rbp),%rax
    2fed:	ba 04 00 00 00       	mov    $0x4,%edx
    2ff2:	be 00 00 00 00       	mov    $0x0,%esi
    2ff7:	48 89 c7             	mov    %rax,%rdi
    2ffa:	e8 00 00 00 00       	callq  2fff <dtls1_get_ccs_header+0x26>
    2fff:	48 8b 45 f8          	mov    -0x8(%rbp),%rax
    3003:	48 8d 50 01          	lea    0x1(%rax),%rdx
    3007:	48 89 55 f8          	mov    %rdx,-0x8(%rbp)
    300b:	0f b6 10             	movzbl (%rax),%edx
    300e:	48 8b 45 f0          	mov    -0x10(%rbp),%rax
    3012:	88 10                	mov    %dl,(%rax)
    3014:	c9                   	leaveq 
    3015:	c3                   	retq   

0000000000003016 <dtls1_shutdown>:
    3016:	55                   	push   %rbp
    3017:	48 89 e5             	mov    %rsp,%rbp
    301a:	48 83 ec 20          	sub    $0x20,%rsp
    301e:	48 89 7d e8          	mov    %rdi,-0x18(%rbp)
    3022:	48 8b 45 e8          	mov    -0x18(%rbp),%rax
    3026:	48 89 c7             	mov    %rax,%rdi
    3029:	e8 00 00 00 00       	callq  302e <dtls1_shutdown+0x18>
    302e:	89 45 fc             	mov    %eax,-0x4(%rbp)
    3031:	8b 45 fc             	mov    -0x4(%rbp),%eax
    3034:	c9                   	leaveq 
    3035:	c3                   	retq   

0000000000003036 <dtls1_process_heartbeat>:
    3036:	55                   	push   %rbp
    3037:	48 89 e5             	mov    %rsp,%rbp
    303a:	48 83 ec 50          	sub    $0x50,%rsp
    303e:	48 89 7d b8          	mov    %rdi,-0x48(%rbp)
    3042:	48 8b 45 b8          	mov    -0x48(%rbp),%rax
    3046:	48 8b 80 80 00 00 00 	mov    0x80(%rax),%rax
    304d:	48 8b 80 30 01 00 00 	mov    0x130(%rax),%rax
    3054:	48 89 45 f8          	mov    %rax,-0x8(%rbp)
    3058:	c7 45 f4 10 00 00 00 	movl   $0x10,-0xc(%rbp)
    305f:	b8 00 00 00 00       	mov    $0x0,%eax
    3064:	e8 00 00 00 00       	callq  3069 <dtls1_process_heartbeat+0x33>
    3069:	48 8b 45 f8          	mov    -0x8(%rbp),%rax
    306d:	48 8d 50 01          	lea    0x1(%rax),%rdx
    3071:	48 89 55 f8          	mov    %rdx,-0x8(%rbp)
    3075:	0f b6 00             	movzbl (%rax),%eax
    3078:	0f b6 c0             	movzbl %al,%eax
    307b:	66 89 45 f2          	mov    %ax,-0xe(%rbp)
    307f:	48 8b 45 f8          	mov    -0x8(%rbp),%rax
    3083:	0f b6 00             	movzbl (%rax),%eax
    3086:	0f b6 c0             	movzbl %al,%eax
    3089:	c1 e0 08             	shl    $0x8,%eax
    308c:	89 c2                	mov    %eax,%edx
    308e:	48 8b 45 f8          	mov    -0x8(%rbp),%rax
    3092:	48 83 c0 01          	add    $0x1,%rax
    3096:	0f b6 00             	movzbl (%rax),%eax
    3099:	0f b6 c0             	movzbl %al,%eax
    309c:	09 d0                	or     %edx,%eax
    309e:	89 45 ec             	mov    %eax,-0x14(%rbp)
    30a1:	48 83 45 f8 02       	addq   $0x2,-0x8(%rbp)
    30a6:	48 8b 45 f8          	mov    -0x8(%rbp),%rax
    30aa:	48 89 45 e0          	mov    %rax,-0x20(%rbp)
    30ae:	b8 00 00 00 00       	mov    $0x0,%eax
    30b3:	e8 00 00 00 00       	callq  30b8 <dtls1_process_heartbeat+0x82>
    30b8:	48 8b 45 b8          	mov    -0x48(%rbp),%rax
    30bc:	48 8b 80 98 00 00 00 	mov    0x98(%rax),%rax
    30c3:	48 85 c0             	test   %rax,%rax
    30c6:	74 5e                	je     3126 <dtls1_process_heartbeat+0xf0>
    30c8:	48 8b 45 b8          	mov    -0x48(%rbp),%rax
    30cc:	48 8b 80 98 00 00 00 	mov    0x98(%rax),%rax
    30d3:	48 8b 55 b8          	mov    -0x48(%rbp),%rdx
    30d7:	48 8b 8a a0 00 00 00 	mov    0xa0(%rdx),%rcx
    30de:	48 8b 55 b8          	mov    -0x48(%rbp),%rdx
    30e2:	48 8b 92 80 00 00 00 	mov    0x80(%rdx),%rdx
    30e9:	8b 92 24 01 00 00    	mov    0x124(%rdx),%edx
    30ef:	89 d7                	mov    %edx,%edi
    30f1:	48 8b 55 b8          	mov    -0x48(%rbp),%rdx
    30f5:	48 8b 92 80 00 00 00 	mov    0x80(%rdx),%rdx
    30fc:	48 8b 92 30 01 00 00 	mov    0x130(%rdx),%rdx
    3103:	48 8b 75 b8          	mov    -0x48(%rbp),%rsi
    3107:	8b 36                	mov    (%rsi),%esi
    3109:	4c 8b 45 b8          	mov    -0x48(%rbp),%r8
    310d:	48 89 0c 24          	mov    %rcx,(%rsp)
    3111:	4d 89 c1             	mov    %r8,%r9
    3114:	49 89 f8             	mov    %rdi,%r8
    3117:	48 89 d1             	mov    %rdx,%rcx
    311a:	ba 18 00 00 00       	mov    $0x18,%edx
    311f:	bf 00 00 00 00       	mov    $0x0,%edi
    3124:	ff d0                	callq  *%rax
    3126:	66 83 7d f2 01       	cmpw   $0x1,-0xe(%rbp)
    312b:	0f 85 23 01 00 00    	jne    3254 <dtls1_process_heartbeat+0x21e>
    3131:	8b 45 f4             	mov    -0xc(%rbp),%eax
    3134:	8b 55 ec             	mov    -0x14(%rbp),%edx
    3137:	01 d0                	add    %edx,%eax
    3139:	83 c0 03             	add    $0x3,%eax
    313c:	ba d2 05 00 00       	mov    $0x5d2,%edx
    3141:	be 00 00 00 00       	mov    $0x0,%esi
    3146:	89 c7                	mov    %eax,%edi
    3148:	e8 00 00 00 00       	callq  314d <dtls1_process_heartbeat+0x117>
    314d:	48 89 45 d8          	mov    %rax,-0x28(%rbp)
    3151:	48 8b 45 d8          	mov    -0x28(%rbp),%rax
    3155:	48 89 45 d0          	mov    %rax,-0x30(%rbp)
    3159:	48 8b 45 d0          	mov    -0x30(%rbp),%rax
    315d:	48 8d 50 01          	lea    0x1(%rax),%rdx
    3161:	48 89 55 d0          	mov    %rdx,-0x30(%rbp)
    3165:	c6 00 02             	movb   $0x2,(%rax)
    3168:	8b 45 ec             	mov    -0x14(%rbp),%eax
    316b:	c1 e8 08             	shr    $0x8,%eax
    316e:	89 c2                	mov    %eax,%edx
    3170:	48 8b 45 d0          	mov    -0x30(%rbp),%rax
    3174:	88 10                	mov    %dl,(%rax)
    3176:	48 8b 45 d0          	mov    -0x30(%rbp),%rax
    317a:	48 8d 50 01          	lea    0x1(%rax),%rdx
    317e:	8b 45 ec             	mov    -0x14(%rbp),%eax
    3181:	88 02                	mov    %al,(%rdx)
    3183:	48 83 45 d0 02       	addq   $0x2,-0x30(%rbp)
    3188:	8b 55 ec             	mov    -0x14(%rbp),%edx
    318b:	48 8b 4d e0          	mov    -0x20(%rbp),%rcx
    318f:	48 8b 45 d0          	mov    -0x30(%rbp),%rax
    3193:	48 89 ce             	mov    %rcx,%rsi
    3196:	48 89 c7             	mov    %rax,%rdi
    3199:	e8 00 00 00 00       	callq  319e <dtls1_process_heartbeat+0x168>
    319e:	8b 45 ec             	mov    -0x14(%rbp),%eax
    31a1:	48 01 45 d0          	add    %rax,-0x30(%rbp)
    31a5:	8b 55 f4             	mov    -0xc(%rbp),%edx
    31a8:	48 8b 45 d0          	mov    -0x30(%rbp),%rax
    31ac:	89 d6                	mov    %edx,%esi
    31ae:	48 89 c7             	mov    %rax,%rdi
    31b1:	e8 00 00 00 00       	callq  31b6 <dtls1_process_heartbeat+0x180>
    31b6:	8b 45 f4             	mov    -0xc(%rbp),%eax
    31b9:	8b 55 ec             	mov    -0x14(%rbp),%edx
    31bc:	01 d0                	add    %edx,%eax
    31be:	83 c0 03             	add    $0x3,%eax
    31c1:	89 c1                	mov    %eax,%ecx
    31c3:	48 8b 55 d8          	mov    -0x28(%rbp),%rdx
    31c7:	48 8b 45 b8          	mov    -0x48(%rbp),%rax
    31cb:	be 18 00 00 00       	mov    $0x18,%esi
    31d0:	48 89 c7             	mov    %rax,%rdi
    31d3:	e8 00 00 00 00       	callq  31d8 <dtls1_process_heartbeat+0x1a2>
    31d8:	89 45 cc             	mov    %eax,-0x34(%rbp)
    31db:	83 7d cc 00          	cmpl   $0x0,-0x34(%rbp)
    31df:	78 5a                	js     323b <dtls1_process_heartbeat+0x205>
    31e1:	48 8b 45 b8          	mov    -0x48(%rbp),%rax
    31e5:	48 8b 80 98 00 00 00 	mov    0x98(%rax),%rax
    31ec:	48 85 c0             	test   %rax,%rax
    31ef:	74 4a                	je     323b <dtls1_process_heartbeat+0x205>
    31f1:	48 8b 45 b8          	mov    -0x48(%rbp),%rax
    31f5:	48 8b 80 98 00 00 00 	mov    0x98(%rax),%rax
    31fc:	48 8b 55 b8          	mov    -0x48(%rbp),%rdx
    3200:	48 8b 8a a0 00 00 00 	mov    0xa0(%rdx),%rcx
    3207:	8b 55 f4             	mov    -0xc(%rbp),%edx
    320a:	8b 75 ec             	mov    -0x14(%rbp),%esi
    320d:	01 f2                	add    %esi,%edx
    320f:	83 c2 03             	add    $0x3,%edx
    3212:	89 d7                	mov    %edx,%edi
    3214:	48 8b 55 b8          	mov    -0x48(%rbp),%rdx
    3218:	8b 32                	mov    (%rdx),%esi
    321a:	4c 8b 45 b8          	mov    -0x48(%rbp),%r8
    321e:	48 8b 55 d8          	mov    -0x28(%rbp),%rdx
    3222:	48 89 0c 24          	mov    %rcx,(%rsp)
    3226:	4d 89 c1             	mov    %r8,%r9
    3229:	49 89 f8             	mov    %rdi,%r8
    322c:	48 89 d1             	mov    %rdx,%rcx
    322f:	ba 18 00 00 00       	mov    $0x18,%edx
    3234:	bf 01 00 00 00       	mov    $0x1,%edi
    3239:	ff d0                	callq  *%rax
    323b:	48 8b 45 d8          	mov    -0x28(%rbp),%rax
    323f:	48 89 c7             	mov    %rax,%rdi
    3242:	e8 00 00 00 00       	callq  3247 <dtls1_process_heartbeat+0x211>
    3247:	83 7d cc 00          	cmpl   $0x0,-0x34(%rbp)
    324b:	79 05                	jns    3252 <dtls1_process_heartbeat+0x21c>
    324d:	8b 45 cc             	mov    -0x34(%rbp),%eax
    3250:	eb 7b                	jmp    32cd <dtls1_process_heartbeat+0x297>
    3252:	eb 74                	jmp    32c8 <dtls1_process_heartbeat+0x292>
    3254:	66 83 7d f2 02       	cmpw   $0x2,-0xe(%rbp)
    3259:	75 6d                	jne    32c8 <dtls1_process_heartbeat+0x292>
    325b:	48 8b 45 e0          	mov    -0x20(%rbp),%rax
    325f:	0f b6 00             	movzbl (%rax),%eax
    3262:	0f b6 c0             	movzbl %al,%eax
    3265:	c1 e0 08             	shl    $0x8,%eax
    3268:	89 c2                	mov    %eax,%edx
    326a:	48 8b 45 e0          	mov    -0x20(%rbp),%rax
    326e:	48 83 c0 01          	add    $0x1,%rax
    3272:	0f b6 00             	movzbl (%rax),%eax
    3275:	0f b6 c0             	movzbl %al,%eax
    3278:	09 d0                	or     %edx,%eax
    327a:	89 45 c8             	mov    %eax,-0x38(%rbp)
    327d:	48 83 45 e0 02       	addq   $0x2,-0x20(%rbp)
    3282:	83 7d ec 12          	cmpl   $0x12,-0x14(%rbp)
    3286:	75 40                	jne    32c8 <dtls1_process_heartbeat+0x292>
    3288:	48 8b 45 b8          	mov    -0x48(%rbp),%rax
    328c:	8b 80 a8 02 00 00    	mov    0x2a8(%rax),%eax
    3292:	3b 45 c8             	cmp    -0x38(%rbp),%eax
    3295:	75 31                	jne    32c8 <dtls1_process_heartbeat+0x292>
    3297:	48 8b 45 b8          	mov    -0x48(%rbp),%rax
    329b:	48 89 c7             	mov    %rax,%rdi
    329e:	e8 00 00 00 00       	callq  32a3 <dtls1_process_heartbeat+0x26d>
    32a3:	48 8b 45 b8          	mov    -0x48(%rbp),%rax
    32a7:	8b 80 a8 02 00 00    	mov    0x2a8(%rax),%eax
    32ad:	8d 50 01             	lea    0x1(%rax),%edx
    32b0:	48 8b 45 b8          	mov    -0x48(%rbp),%rax
    32b4:	89 90 a8 02 00 00    	mov    %edx,0x2a8(%rax)
    32ba:	48 8b 45 b8          	mov    -0x48(%rbp),%rax
    32be:	c7 80 a4 02 00 00 00 	movl   $0x0,0x2a4(%rax)
    32c5:	00 00 00 
    32c8:	b8 00 00 00 00       	mov    $0x0,%eax
    32cd:	c9                   	leaveq 
    32ce:	c3                   	retq   

00000000000032cf <dtls1_heartbeat>:
    32cf:	55                   	push   %rbp
    32d0:	48 89 e5             	mov    %rsp,%rbp
    32d3:	48 83 ec 30          	sub    $0x30,%rsp
    32d7:	48 89 7d d8          	mov    %rdi,-0x28(%rbp)
    32db:	c7 45 fc 12 00 00 00 	movl   $0x12,-0x4(%rbp)
    32e2:	c7 45 f8 10 00 00 00 	movl   $0x10,-0x8(%rbp)
    32e9:	48 8b 45 d8          	mov    -0x28(%rbp),%rax
    32ed:	8b 80 a0 02 00 00    	mov    0x2a0(%rax),%eax
    32f3:	83 e0 01             	and    $0x1,%eax
    32f6:	85 c0                	test   %eax,%eax
    32f8:	74 11                	je     330b <dtls1_heartbeat+0x3c>
    32fa:	48 8b 45 d8          	mov    -0x28(%rbp),%rax
    32fe:	8b 80 a0 02 00 00    	mov    0x2a0(%rax),%eax
    3304:	83 e0 02             	and    $0x2,%eax
    3307:	85 c0                	test   %eax,%eax
    3309:	74 29                	je     3334 <dtls1_heartbeat+0x65>
    330b:	41 b8 09 06 00 00    	mov    $0x609,%r8d
    3311:	b9 00 00 00 00       	mov    $0x0,%ecx
    3316:	ba 6d 01 00 00       	mov    $0x16d,%edx
    331b:	be 31 01 00 00       	mov    $0x131,%esi
    3320:	bf 14 00 00 00       	mov    $0x14,%edi
    3325:	e8 00 00 00 00       	callq  332a <dtls1_heartbeat+0x5b>
    332a:	b8 ff ff ff ff       	mov    $0xffffffff,%eax
    332f:	e9 fd 01 00 00       	jmpq   3531 <dtls1_heartbeat+0x262>
    3334:	48 8b 45 d8          	mov    -0x28(%rbp),%rax
    3338:	8b 80 a4 02 00 00    	mov    0x2a4(%rax),%eax
    333e:	85 c0                	test   %eax,%eax
    3340:	74 29                	je     336b <dtls1_heartbeat+0x9c>
    3342:	41 b8 10 06 00 00    	mov    $0x610,%r8d
    3348:	b9 00 00 00 00       	mov    $0x0,%ecx
    334d:	ba 6e 01 00 00       	mov    $0x16e,%edx
    3352:	be 31 01 00 00       	mov    $0x131,%esi
    3357:	bf 14 00 00 00       	mov    $0x14,%edi
    335c:	e8 00 00 00 00       	callq  3361 <dtls1_heartbeat+0x92>
    3361:	b8 ff ff ff ff       	mov    $0xffffffff,%eax
    3366:	e9 c6 01 00 00       	jmpq   3531 <dtls1_heartbeat+0x262>
    336b:	48 8b 45 d8          	mov    -0x28(%rbp),%rax
    336f:	48 89 c7             	mov    %rax,%rdi
    3372:	e8 00 00 00 00       	callq  3377 <dtls1_heartbeat+0xa8>
    3377:	25 00 30 00 00       	and    $0x3000,%eax
    337c:	85 c0                	test   %eax,%eax
    337e:	75 0b                	jne    338b <dtls1_heartbeat+0xbc>
    3380:	48 8b 45 d8          	mov    -0x28(%rbp),%rax
    3384:	8b 40 2c             	mov    0x2c(%rax),%eax
    3387:	85 c0                	test   %eax,%eax
    3389:	74 29                	je     33b4 <dtls1_heartbeat+0xe5>
    338b:	41 b8 17 06 00 00    	mov    $0x617,%r8d
    3391:	b9 00 00 00 00       	mov    $0x0,%ecx
    3396:	ba f4 00 00 00       	mov    $0xf4,%edx
    339b:	be 31 01 00 00       	mov    $0x131,%esi
    33a0:	bf 14 00 00 00       	mov    $0x14,%edi
    33a5:	e8 00 00 00 00       	callq  33aa <dtls1_heartbeat+0xdb>
    33aa:	b8 ff ff ff ff       	mov    $0xffffffff,%eax
    33af:	e9 7d 01 00 00       	jmpq   3531 <dtls1_heartbeat+0x262>
    33b4:	8b 45 f8             	mov    -0x8(%rbp),%eax
    33b7:	8b 55 fc             	mov    -0x4(%rbp),%edx
    33ba:	01 d0                	add    %edx,%eax
    33bc:	3d fd 3f 00 00       	cmp    $0x3ffd,%eax
    33c1:	76 14                	jbe    33d7 <dtls1_heartbeat+0x108>
    33c3:	ba 00 00 00 00       	mov    $0x0,%edx
    33c8:	be 1e 06 00 00       	mov    $0x61e,%esi
    33cd:	bf 00 00 00 00       	mov    $0x0,%edi
    33d2:	e8 00 00 00 00       	callq  33d7 <dtls1_heartbeat+0x108>
    33d7:	8b 45 f8             	mov    -0x8(%rbp),%eax
    33da:	8b 55 fc             	mov    -0x4(%rbp),%edx
    33dd:	01 d0                	add    %edx,%eax
    33df:	83 c0 03             	add    $0x3,%eax
    33e2:	ba 29 06 00 00       	mov    $0x629,%edx
    33e7:	be 00 00 00 00       	mov    $0x0,%esi
    33ec:	89 c7                	mov    %eax,%edi
    33ee:	e8 00 00 00 00       	callq  33f3 <dtls1_heartbeat+0x124>
    33f3:	48 89 45 f0          	mov    %rax,-0x10(%rbp)
    33f7:	48 8b 45 f0          	mov    -0x10(%rbp),%rax
    33fb:	48 89 45 e8          	mov    %rax,-0x18(%rbp)
    33ff:	48 8b 45 e8          	mov    -0x18(%rbp),%rax
    3403:	48 8d 50 01          	lea    0x1(%rax),%rdx
    3407:	48 89 55 e8          	mov    %rdx,-0x18(%rbp)
    340b:	c6 00 01             	movb   $0x1,(%rax)
    340e:	8b 45 fc             	mov    -0x4(%rbp),%eax
    3411:	c1 e8 08             	shr    $0x8,%eax
    3414:	89 c2                	mov    %eax,%edx
    3416:	48 8b 45 e8          	mov    -0x18(%rbp),%rax
    341a:	88 10                	mov    %dl,(%rax)
    341c:	48 8b 45 e8          	mov    -0x18(%rbp),%rax
    3420:	48 8d 50 01          	lea    0x1(%rax),%rdx
    3424:	8b 45 fc             	mov    -0x4(%rbp),%eax
    3427:	88 02                	mov    %al,(%rdx)
    3429:	48 83 45 e8 02       	addq   $0x2,-0x18(%rbp)
    342e:	48 8b 45 d8          	mov    -0x28(%rbp),%rax
    3432:	8b 80 a8 02 00 00    	mov    0x2a8(%rax),%eax
    3438:	c1 e8 08             	shr    $0x8,%eax
    343b:	89 c2                	mov    %eax,%edx
    343d:	48 8b 45 e8          	mov    -0x18(%rbp),%rax
    3441:	88 10                	mov    %dl,(%rax)
    3443:	48 8b 45 e8          	mov    -0x18(%rbp),%rax
    3447:	48 8d 50 01          	lea    0x1(%rax),%rdx
    344b:	48 8b 45 d8          	mov    -0x28(%rbp),%rax
    344f:	8b 80 a8 02 00 00    	mov    0x2a8(%rax),%eax
    3455:	88 02                	mov    %al,(%rdx)
    3457:	48 83 45 e8 02       	addq   $0x2,-0x18(%rbp)
    345c:	48 8b 45 e8          	mov    -0x18(%rbp),%rax
    3460:	be 10 00 00 00       	mov    $0x10,%esi
    3465:	48 89 c7             	mov    %rax,%rdi
    3468:	e8 00 00 00 00       	callq  346d <dtls1_heartbeat+0x19e>
    346d:	48 83 45 e8 10       	addq   $0x10,-0x18(%rbp)
    3472:	8b 55 f8             	mov    -0x8(%rbp),%edx
    3475:	48 8b 45 e8          	mov    -0x18(%rbp),%rax
    3479:	89 d6                	mov    %edx,%esi
    347b:	48 89 c7             	mov    %rax,%rdi
    347e:	e8 00 00 00 00       	callq  3483 <dtls1_heartbeat+0x1b4>
    3483:	8b 45 f8             	mov    -0x8(%rbp),%eax
    3486:	8b 55 fc             	mov    -0x4(%rbp),%edx
    3489:	01 d0                	add    %edx,%eax
    348b:	83 c0 03             	add    $0x3,%eax
    348e:	89 c1                	mov    %eax,%ecx
    3490:	48 8b 55 f0          	mov    -0x10(%rbp),%rdx
    3494:	48 8b 45 d8          	mov    -0x28(%rbp),%rax
    3498:	be 18 00 00 00       	mov    $0x18,%esi
    349d:	48 89 c7             	mov    %rax,%rdi
    34a0:	e8 00 00 00 00       	callq  34a5 <dtls1_heartbeat+0x1d6>
    34a5:	89 45 e4             	mov    %eax,-0x1c(%rbp)
    34a8:	83 7d e4 00          	cmpl   $0x0,-0x1c(%rbp)
    34ac:	78 74                	js     3522 <dtls1_heartbeat+0x253>
    34ae:	48 8b 45 d8          	mov    -0x28(%rbp),%rax
    34b2:	48 8b 80 98 00 00 00 	mov    0x98(%rax),%rax
    34b9:	48 85 c0             	test   %rax,%rax
    34bc:	74 4a                	je     3508 <dtls1_heartbeat+0x239>
    34be:	48 8b 45 d8          	mov    -0x28(%rbp),%rax
    34c2:	48 8b 80 98 00 00 00 	mov    0x98(%rax),%rax
    34c9:	48 8b 55 d8          	mov    -0x28(%rbp),%rdx
    34cd:	48 8b 8a a0 00 00 00 	mov    0xa0(%rdx),%rcx
    34d4:	8b 55 f8             	mov    -0x8(%rbp),%edx
    34d7:	8b 75 fc             	mov    -0x4(%rbp),%esi
    34da:	01 f2                	add    %esi,%edx
    34dc:	83 c2 03             	add    $0x3,%edx
    34df:	89 d7                	mov    %edx,%edi
    34e1:	48 8b 55 d8          	mov    -0x28(%rbp),%rdx
    34e5:	8b 32                	mov    (%rdx),%esi
    34e7:	4c 8b 45 d8          	mov    -0x28(%rbp),%r8
    34eb:	48 8b 55 f0          	mov    -0x10(%rbp),%rdx
    34ef:	48 89 0c 24          	mov    %rcx,(%rsp)
    34f3:	4d 89 c1             	mov    %r8,%r9
    34f6:	49 89 f8             	mov    %rdi,%r8
    34f9:	48 89 d1             	mov    %rdx,%rcx
    34fc:	ba 18 00 00 00       	mov    $0x18,%edx
    3501:	bf 01 00 00 00       	mov    $0x1,%edi
    3506:	ff d0                	callq  *%rax
    3508:	48 8b 45 d8          	mov    -0x28(%rbp),%rax
    350c:	48 89 c7             	mov    %rax,%rdi
    350f:	e8 00 00 00 00       	callq  3514 <dtls1_heartbeat+0x245>
    3514:	48 8b 45 d8          	mov    -0x28(%rbp),%rax
    3518:	c7 80 a4 02 00 00 01 	movl   $0x1,0x2a4(%rax)
    351f:	00 00 00 
    3522:	48 8b 45 f0          	mov    -0x10(%rbp),%rax
    3526:	48 89 c7             	mov    %rax,%rdi
    3529:	e8 00 00 00 00       	callq  352e <dtls1_heartbeat+0x25f>
    352e:	8b 45 e4             	mov    -0x1c(%rbp),%eax
    3531:	c9                   	leaveq 
    3532:	c3                   	retq   

0000000000003533 <main>:
    3533:	55                   	push   %rbp
    3534:	48 89 e5             	mov    %rsp,%rbp
    3537:	b8 00 00 00 00       	mov    $0x0,%eax
    353c:	5d                   	pop    %rbp
    353d:	c3                   	retq   
